(dp1
S'output'
p2
S''
sS'layer'
p3
S'/media/DADOS/Projetos/web2py/applications/marcado/controllers/agenda.py'
p4
sS'code'
p5
S'# coding: utf8\n\n\'\'\'\nImportando o simplejson para gerar os arquivos\nno formato JSON e enviando para o calendario\n\'\'\'\nimport simplejson as json\n@service.json\ndef index():\n    # Consultando os servicos do usuario logado\n    query = db.agenda.id > 0 and db.agenda.funcionario == session.auth.user.id and db.agenda.cliente == db.cliente.id\n    agenda = db(query).select(orderby = db.agenda.data)\n    teste2 = list(agenda)\n    for ag in agenda:\n        # results = dict()\n        #results["id"] = ag.agenda.id\n        #results["title"] = ag.cliente.nome\n        #results["start"] = ag.agenda.data.strftime(\'%Y-%m-%d\')\n        teste = json.dumps({"id":ag.agenda.id,"title":ag.cliente.nome,"start":ag.agenda.data.strftime(\'%Y-%m-%d\')},indent=4)\n    \n    print teste2\n    return dict(teste = json.JSONEncode(teste))\n    #print results\n    #return results\n\n\n@service.json\ndef dados_agenda():\n    # Consultando os servicos do usuario logado\n    query = db.agenda.id > 0 and db.agenda.funcionario == session.auth.user.id and db.agenda.cliente == db.cliente.id\n    agenda = db(query).select(orderby = db.agenda.data)\n    \n    teste = []\n    for ag in agenda:\n        results = dict()\n        results["id"] = ag.agenda.id\n        results["title"] = ag.cliente.nome\n        results["start"] = ag.agenda.data.strftime(\'%Y-%m-%d\')\n        # teste = json.dumps({\'id\':ag.agenda.id,\'title\':ag.cliente.nome,\'start\':ag.agenda.data.strftime(\'%Y-%m-%d\')}, indent=4)\n    \n    # print teste\n    # return dict(teste = teste)    \n    return results\n\n\ndef novo():\n    return dict(form = crud.create(db.agenda))\n\nresponse._vars=response._caller(index)\n'
p6
sS'snapshot'
p7
(dp8
S'exception'
p9
(dp10
S'__hash__'
p11
S"<method-wrapper '__hash__' of exceptions.AttributeError object>"
p12
sS'__setattr__'
p13
S"<method-wrapper '__setattr__' of exceptions.AttributeError object>"
p14
sS'__reduce_ex__'
p15
S'<built-in method __reduce_ex__ of exceptions.AttributeError object>'
p16
sS'__getslice__'
p17
S"<method-wrapper '__getslice__' of exceptions.AttributeError object>"
p18
sS'__getitem__'
p19
S"<method-wrapper '__getitem__' of exceptions.AttributeError object>"
p20
sS'__setstate__'
p21
S'<built-in method __setstate__ of exceptions.AttributeError object>'
p22
sS'args'
p23
S'("\'module\' object has no attribute \'JSONEncode\'",)'
p24
sS'__reduce__'
p25
S'<built-in method __reduce__ of exceptions.AttributeError object>'
p26
sS'__str__'
p27
S"<method-wrapper '__str__' of exceptions.AttributeError object>"
p28
sS'__format__'
p29
S'<built-in method __format__ of exceptions.AttributeError object>'
p30
sS'__getattribute__'
p31
S"<method-wrapper '__getattribute__' of exceptions.AttributeError object>"
p32
sS'__class__'
p33
S"<type 'exceptions.AttributeError'>"
p34
sS'__unicode__'
p35
S'<built-in method __unicode__ of exceptions.AttributeError object>'
p36
sS'__delattr__'
p37
S"<method-wrapper '__delattr__' of exceptions.AttributeError object>"
p38
sS'__subclasshook__'
p39
S'<built-in method __subclasshook__ of type object>'
p40
sS'__repr__'
p41
S"<method-wrapper '__repr__' of exceptions.AttributeError object>"
p42
sS'__dict__'
p43
S'{}'
p44
sS'__sizeof__'
p45
S'<built-in method __sizeof__ of exceptions.AttributeError object>'
p46
sS'__doc__'
p47
S"'Attribute not found.'"
p48
sS'__init__'
p49
S"<method-wrapper '__init__' of exceptions.AttributeError object>"
p50
sS'__new__'
p51
S'<built-in method __new__ of type object>'
p52
ssS'evalue'
p53
S"'module' object has no attribute 'JSONEncode'"
p54
sS'request'
p55
(dp56
S'function'
p57
S"'index'"
p58
sS'body'
p59
S'<cStringIO.StringO object>'
p60
sS'wsgi'
p61
S"<Storage {'start_response': <function <lambda> a...>, 'HTTP_ACCEPT_ENCODING': 'gzip,deflate,sdch'}}>"
p62
sS'extension'
p63
S"'html'"
p64
sS'vars'
p65
S'<Storage {}>'
p66
sS'cid'
p67
S'None'
p68
sS'url'
p69
S'<gluon.html.XML object>'
p70
sS'raw_extension'
p71
S'None'
p72
sg23
S'[]'
p73
sS'controller'
p74
S"'agenda'"
p75
sS'cookies'
p76
S"<SimpleCookie: session_id_admin='127.0.0.1-4bf8a...'127.0.0.1-0ca5111d-f19a-4fda-ad80-a0a8248ebc39'>"
p77
sS'application'
p78
S"'marcado'"
p79
sS'ajax'
p80
S'False'
p81
sS'client'
p82
S"'127.0.0.1'"
p83
sS'env'
p84
S"<Storage {'wsgi_multithread': True, 'http_accept... 'wsgi_run_once': False, 'remote_port': '35522'}>"
p85
sS'raw_args'
p86
S'None'
p87
sS'get_vars'
p88
S'<Storage {}>'
p89
sS'folder'
p90
S"'/media/DADOS/Projetos/web2py/applications/marcado/'"
p91
sS'now'
p92
S'datetime.datetime(2011, 1, 19, 0, 59, 57, 191578)'
p93
sS'post_vars'
p94
S'<Storage {}>'
p95
ssS'frames'
p96
(lp97
(dp98
S'file'
p99
S'/media/DADOS/Projetos/web2py/gluon/restricted.py'
p100
sS'dump'
p101
(dp102
S'environment'
p103
S"{'A': <class 'gluon.html.A'>, 'Auth': <class 'gluon.tools.Auth'>, 'B': <class 'gluon.html.B'>, 'BEAUTIFY': <class 'gluon.html.BEAUTIFY'>, 'BODY': <class 'gluon.html.BODY'>, 'BR': <class 'gluon.html.BR'>, 'CENTER': <class 'gluon.html.CENTER'>, 'CLEANUP': <class 'gluon.validators.CLEANUP'>, 'CODE': <class 'gluon.html.CODE'>, 'CRYPT': <class 'gluon.validators.CRYPT'>, ...}"
p104
sS'ccode'
p105
S'<code object <module> at 0x24a33f0, file "/media...lications/marcado/controllers/agenda.py", line 6>'
p106
ssS'lnum'
p107
I188
sS'lines'
p108
(dp109
I192
S'        # XXX Show exception in Wing IDE if running in debugger'
p110
sI183
S'        if type(code) == types.CodeType:'
p111
sI184
S'            ccode = code'
p112
sI185
S'        else:'
p113
sI186
S'            ccode = compile2(code,layer)'
p114
sI187
S''
sI188
S'        exec ccode in environment'
p115
sI189
S'    except HTTP:'
p116
sI190
S'        raise'
p117
sI191
S'    except Exception:'
p118
ssS'call'
p119
S'(code="# coding: utf8\\n\\n\'\'\'\\nImportando o simplejson para...agenda))\\n\\nresponse._vars=response._caller(index)\\n", environment={\'A\': <class \'gluon.html.A\'>, \'Auth\': <class \'gluon.tools.Auth\'>, \'B\': <class \'gluon.html.B\'>, \'BEAUTIFY\': <class \'gluon.html.BEAUTIFY\'>, \'BODY\': <class \'gluon.html.BODY\'>, \'BR\': <class \'gluon.html.BR\'>, \'CENTER\': <class \'gluon.html.CENTER\'>, \'CLEANUP\': <class \'gluon.validators.CLEANUP\'>, \'CODE\': <class \'gluon.html.CODE\'>, \'CRYPT\': <class \'gluon.validators.CRYPT\'>, ...}, layer=\'/media/DADOS/Projetos/web2py/applications/marcado/controllers/agenda.py\')'
p120
sS'func'
p121
S'restricted'
p122
sa(dp123
g99
S'/media/DADOS/Projetos/web2py/applications/marcado/controllers/agenda.py'
p124
sg101
(dp125
sg107
I49
sg108
(dp126
I38
S'        results["start"] = ag.agenda.data.strftime(\'%Y-%m-%d\')'
p127
sI39
S"        # teste = json.dumps({'id':ag.agenda.id,'title':ag.cliente.nome,'start':ag.agenda.data.strftime('%Y-%m-%d')}, indent=4)"
p128
sI40
S''
sI41
S'    # print teste'
p129
sI42
S'    # return dict(teste = teste)'
p130
sI43
S'    return results'
p131
sI44
S''
sI45
S''
sI46
S'def novo():'
p132
sI47
S'    return dict(form = crud.create(db.agenda))'
p133
ssg119
S'()'
p134
sg121
S'<module>'
p135
sa(dp136
g99
S'/media/DADOS/Projetos/web2py/gluon/globals.py'
p137
sg101
(dp138
S'self'
p139
S'undefined'
p140
sS'f'
S'<function index>'
p141
ssg107
I95
sg108
(dp142
I96
S'        self._view_environment = None'
p143
sI97
S'        self._custom_commit = None'
p144
sI98
S'        self._custom_rollback = None'
p145
sI99
S''
sI90
S"        self.flash = ''           # used by the default view layout"
p146
sI91
S'        self.meta = Storage()     # used by web2py_ajax.html'
p147
sI92
S'        self.menu = []            # used by the default view layout'
p148
sI93
S'        self.files = []           # used by web2py_ajax.html'
p149
sI94
S'        self._vars = None'
p150
sI95
S'        self._caller = lambda f: f()'
p151
ssg119
S'(f=<function index>)'
p152
sg121
S'<lambda>'
p153
sa(dp154
g99
S'/media/DADOS/Projetos/web2py/applications/marcado/controllers/agenda.py'
p155
sg101
(dp156
S'global json'
p157
S"<module 'simplejson' from '/usr/lib/pymodules/python2.6/simplejson/__init__.pyc'>"
p158
sS'json.JSONEncode'
p159
g140
sS'teste'
p160
S'\'{\\n    "start": "2011-01-27", \\n    "id": 4, \\n    "title": "Fulano Silva"\\n}\''
p161
sS'builtindict'
p162
S"<type 'dict'>"
p163
ssg107
I22
sg108
(dp164
I17
S'        #results["title"] = ag.cliente.nome'
p165
sI18
S'        #results["start"] = ag.agenda.data.strftime(\'%Y-%m-%d\')'
p166
sI19
S'        teste = json.dumps({"id":ag.agenda.id,"title":ag.cliente.nome,"start":ag.agenda.data.strftime(\'%Y-%m-%d\')},indent=4)'
p167
sI20
S''
sI21
S'    print teste2'
p168
sI22
S'    return dict(teste = json.JSONEncode(teste))'
p169
sI23
S'    #print results'
p170
sI24
S'    #return results'
p171
sI25
S''
sI26
S''
ssg119
S'()'
p172
sg121
S'index'
p173
sasS'pyver'
p174
S'Python 2.6.6: /usr/bin/python'
p175
sS'session'
p176
(dp177
S'flash'
p178
S'None'
p179
sS'auth'
p180
S"<Storage {'expiration': 3600, 'user': <Storage {...1, 1, 19, 0, 59, 57, 191578), 'remember': False}>"
p181
sS'_formkey[login]'
p182
S"'ce35d82d-3e60-4cb3-b653-a7a2db11015c'"
p183
ssS'etype'
p184
S"<type 'exceptions.AttributeError'>"
p185
sS'date'
p186
S'Wed Jan 19 00:59:57 2011'
p187
sS'response'
p188
(dp189
S'status'
p190
S'200'
p191
sg59
S'<cStringIO.StringO object>'
p192
sg76
S"<SimpleCookie: session_id_marcado='127.0.0.1-21281295-af80-4efc-975b-3b5f155e07e9'>"
p193
sS'_vars'
p194
S'None'
p195
sS'title'
p196
S"'Marcado!'"
p197
sS'session_file'
p198
S"<open file '/media/DADOS/Projetos/web2py/applica...1281295-af80-4efc-975b-3b5f155e07e9', mode 'rb+'>"
p199
sS'flash'
p200
S"''"
p201
sS'_custom_rollback'
p202
S'None'
p203
sS'session_id'
p204
S"'127.0.0.1-21281295-af80-4efc-975b-3b5f155e07e9'"
p205
sS'headers'
p206
S"<Storage {'Expires': 'Wed, 19 Jan 2011 02:59:57 ...he, must-revalidate, post-check=0, pre-check=0'}>"
p207
sS'meta'
p208
S"<Storage {'keywords': 'web2py, python, framework...Enterprise Framework', 'author': 'Gilson Filho'}>"
p209
sS'session_filename'
p210
S"'/media/DADOS/Projetos/web2py/applications/marcad...ns/127.0.0.1-21281295-af80-4efc-975b-3b5f155e07e9'"
p211
sS'postprocessing'
p212
S'[]'
p213
sS'menu'
p214
S"[(<lazyT 'Home'>, False, <gluon.html.XML object>, []), (<lazyT 'This App'>, False, <gluon.html.XML object>, [(<lazyT 'Controller'>, False, <gluon.html.XML object>), (<lazyT 'View'>, False, <gluon.html.XML object>), (<lazyT 'Layout'>, False, <gluon.html.XML object>), (<lazyT 'Stylesheet'>, False, <gluon.html.XML object>), (<lazyT 'DB Model'>, False, <gluon.html.XML object>), (<lazyT 'Menu Model'>, False, <gluon.html.XML object>), (<lazyT 'Database'>, False, <gluon.html.XML object>), (<lazyT 'Errors'>, False, <gluon.html.XML object>), (<lazyT 'About'>, False, <gluon.html.XML object>)]), (<lazyT 'Resources'>, False, None, [(<lazyT 'Documentation'>, False, 'http://www.web2py.com/book', [(<lazyT 'Preface'>, False, 'http://www.web2py.com/book/default/chapter/00'), (<lazyT 'Introduction'>, False, 'http://www.web2py.com/book/default/chapter/01'), (<lazyT 'Python'>, False, 'http://www.web2py.com/book/default/chapter/02'), (<lazyT 'Overview'>, False, 'http://www.web2py.com/book/default/chapter/03'), (<lazyT 'The Core'>, False, 'http://www.web2py.com/book/default/chapter/04'), (<lazyT 'The Views'>, False, 'http://www.web2py.com/book/default/chapter/05'), (<lazyT 'Database'>, False, 'http://www.web2py.com/book/default/chapter/06'), (<lazyT 'Forms and Validators'>, False, 'http://www.web2py.com/book/default/chapter/07'), (<lazyT 'Access Control'>, False, 'http://www.web2py.com/book/default/chapter/08'), (<lazyT 'Services'>, False, 'http://www.web2py.com/book/default/chapter/09'), (<lazyT 'Ajax Recipes'>, False, 'http://www.web2py.com/book/default/chapter/10'), (<lazyT 'Deployment Recipes'>, False, 'http://www.web2py.com/book/default/chapter/11'), (<lazyT 'Other Recipes'>, False, 'http://www.web2py.com/book/default/chapter/12'), (<lazyT 'Buy this book'>, False, 'http://stores.lulu.com/web2py')]), (<lazyT 'Community'>, False, None, [(<lazyT 'Groups'>, False, 'http://www.web2py.com/examples/default/usergroups'), (<lazyT 'Twitter'>, False, 'http://twitter.com/web2py'), (<lazyT 'Live chat'>, False, 'http://mibbit.com/?channel=%23web2py&server=irc.mibbit.net'), (<lazyT 'User Voice'>, False, 'http://web2py.uservoice.com/')]), (<lazyT 'Web2py'>, False, 'http://www.web2py.com', [(<lazyT 'Download'>, False, 'http://www.web2py.com/examples/default/download'), (<lazyT 'Support'>, False, 'http://www.web2py.com/examples/default/support'), (<lazyT 'Quick Examples'>, False, 'http://web2py.com/examples/default/examples'), (<lazyT 'FAQ'>, False, 'http://web2py.com/AlterEgo'), (<lazyT 'Free Applications'>, False, 'http://web2py.com/appliances'), (<lazyT 'Plugins'>, False, 'http://web2py.com/plugins'), (<lazyT 'Recipes'>, False, 'http://web2pyslices.com/'), (<lazyT 'Demo'>, False, 'http://web2py.com/demo_admin'), (<lazyT 'Semantic'>, False, 'http://web2py.com/semantic'), (<lazyT 'Layouts'>, False, 'http://web2py.com/layouts'), (<lazyT 'Videos'>, False, 'http://www.web2py.com/examples/default/videos/')])])]"
p215
sS'_view_environment'
p216
S"{'A': <class 'gluon.html.A'>, 'Auth': <class 'gluon.tools.Auth'>, 'B': <class 'gluon.html.B'>, 'BEAUTIFY': <class 'gluon.html.BEAUTIFY'>, 'BODY': <class 'gluon.html.BODY'>, 'BR': <class 'gluon.html.BR'>, 'CENTER': <class 'gluon.html.CENTER'>, 'CLEANUP': <class 'gluon.validators.CLEANUP'>, 'CODE': <class 'gluon.html.CODE'>, 'CRYPT': <class 'gluon.validators.CRYPT'>, ...}"
p217
sS'session_id_name'
p218
S"'session_id_marcado'"
p219
sS'_custom_commit'
p220
S'None'
p221
sS'_caller'
p222
S'<function <lambda>>'
p223
sS'files'
p224
S'[]'
p225
sS'view'
p226
S"'agenda/index.html'"
p227
ssS'locals'
p228
(dp229
S'query'
p230
S'<gluon.dal.Query object>'
p231
sS'teste'
p232
S'\'{\\n    "start": "2011-01-27", \\n    "id": 4, \\n    "title": "Fulano Silva"\\n}\''
p233
sS'ag'
p234
S"<Row {'cliente': <Row {'telefone': '(61) 8172-81...ete_record': <function <lambda> at 0x2490230>}>}>"
p235
sS'agenda'
p236
S'<gluon.dal.Rows object>'
p237
sS'teste2'
p238
S"[<Row {'cliente': <Row {'telefone': '(61) 8172-81...ete_record': <function <lambda> at 0x2490488>}>}>, <Row {'cliente': <Row {'telefone': '(61) 8613-40...ete_record': <function <lambda> at 0x2490320>}>}>, <Row {'cliente': <Row {'telefone': '(61) 8613-40...ete_record': <function <lambda> at 0x24905f0>}>}>, <Row {'cliente': <Row {'telefone': '(61) 8172-81...ete_record': <function <lambda> at 0x2490230>}>}>]"
p239
sssS'traceback'
p240
S'Traceback (most recent call last):\n  File "/media/DADOS/Projetos/web2py/gluon/restricted.py", line 188, in restricted\n    exec ccode in environment\n  File "/media/DADOS/Projetos/web2py/applications/marcado/controllers/agenda.py", line 49, in <module>\n  File "/media/DADOS/Projetos/web2py/gluon/globals.py", line 95, in <lambda>\n    self._caller = lambda f: f()\n  File "/media/DADOS/Projetos/web2py/applications/marcado/controllers/agenda.py", line 22, in index\n    return dict(teste = json.JSONEncode(teste))\nAttributeError: \'module\' object has no attribute \'JSONEncode\'\n'
p241
s.