(dp1
S'output'
p2
S''
sS'layer'
p3
S'/media/DADOS/Projetos/web2py/applications/marcado/controllers/agenda.py'
p4
sS'code'
p5
S'# coding: utf8\ndef index():\n    # Consultando os servicos do usuario logado\n    query = db.agenda.id > 0 and db.agenda.funcionario == session.auth.user.id and db.agenda.cliente = db.cliente.id\n    agenda = db(query).select(orderby = db.agenda.data)\n    \n    for ag in agenda:\n        cliente = ag.cliente.nome\n        print cliente\n\n    return dict()\n\ndef novo():\n    return dict(form = crud.create(db.agenda))\n\nresponse._vars=response._caller(index)\n'
p6
sS'snapshot'
p7
(dp8
S'exception'
p9
(dp10
S'__getslice__'
p11
S"<method-wrapper '__getslice__' of exceptions.SyntaxError object>"
p12
sS'text'
p13
S"'query = db.agenda.id > 0 and db.agenda.funcionar...th.user.id and db.agenda.cliente = db.cliente.id\\n'"
p14
sS'__str__'
p15
S"<method-wrapper '__str__' of exceptions.SyntaxError object>"
p16
sS'__reduce__'
p17
S'<built-in method __reduce__ of exceptions.SyntaxError object>'
p18
sS'__dict__'
p19
S'{}'
p20
sS'__sizeof__'
p21
S'<built-in method __sizeof__ of exceptions.SyntaxError object>'
p22
sS'__init__'
p23
S"<method-wrapper '__init__' of exceptions.SyntaxError object>"
p24
sS'__setattr__'
p25
S"<method-wrapper '__setattr__' of exceptions.SyntaxError object>"
p26
sS'__reduce_ex__'
p27
S'<built-in method __reduce_ex__ of exceptions.SyntaxError object>'
p28
sS'__new__'
p29
S'<built-in method __new__ of type object>'
p30
sS'__format__'
p31
S'<built-in method __format__ of exceptions.SyntaxError object>'
p32
sS'__class__'
p33
S"<type 'exceptions.SyntaxError'>"
p34
sS'filename'
p35
S"'/media/DADOS/Projetos/web2py/applications/marcado/controllers/agenda.py'"
p36
sS'lineno'
p37
S'4'
sS'msg'
p38
S'"can\'t assign to operator"'
p39
sS'__doc__'
p40
S"'Invalid syntax.'"
p41
sS'__getitem__'
p42
S"<method-wrapper '__getitem__' of exceptions.SyntaxError object>"
p43
sS'__setstate__'
p44
S'<built-in method __setstate__ of exceptions.SyntaxError object>'
p45
sS'__getattribute__'
p46
S"<method-wrapper '__getattribute__' of exceptions.SyntaxError object>"
p47
sS'print_file_and_line'
p48
S'None'
p49
sS'args'
p50
S'("can\'t assign to operator", (\'/media/DADOS/Projetos/web2py/applications/marcado/controllers/agenda.py\', 4, None, \'query = db.agenda.id > 0 and db.agenda.funcionar...th.user.id and db.agenda.cliente = db.cliente.id\\n\'))'
p51
sS'__subclasshook__'
p52
S'<built-in method __subclasshook__ of type object>'
p53
sS'offset'
p54
S'None'
p55
sS'__unicode__'
p56
S'<built-in method __unicode__ of exceptions.SyntaxError object>'
p57
sS'__delattr__'
p58
S"<method-wrapper '__delattr__' of exceptions.SyntaxError object>"
p59
sS'__repr__'
p60
S"<method-wrapper '__repr__' of exceptions.SyntaxError object>"
p61
sS'__hash__'
p62
S"<method-wrapper '__hash__' of exceptions.SyntaxError object>"
p63
ssS'evalue'
p64
S"can't assign to operator (agenda.py, line 4)"
p65
sS'request'
p66
(dp67
S'function'
p68
S"'index'"
p69
sS'body'
p70
S'<cStringIO.StringO object>'
p71
sS'wsgi'
p72
S"<Storage {'start_response': <function <lambda> a...>, 'HTTP_ACCEPT_ENCODING': 'gzip,deflate,sdch'}}>"
p73
sS'extension'
p74
S"'html'"
p75
sS'vars'
p76
S'<Storage {}>'
p77
sS'cid'
p78
S'None'
p79
sS'url'
p80
S'<gluon.html.XML object>'
p81
sS'raw_extension'
p82
S'None'
p83
sg50
S'[]'
p84
sS'controller'
p85
S"'agenda'"
p86
sS'cookies'
p87
S"<SimpleCookie: session_id_admin='127.0.0.1-04483...'127.0.0.1-95e908f2-dd4f-4ff1-8538-8f3335ccc46d'>"
p88
sS'application'
p89
S"'marcado'"
p90
sS'ajax'
p91
S'False'
p92
sS'client'
p93
S"'127.0.0.1'"
p94
sS'env'
p95
S"<Storage {'wsgi_multithread': True, 'http_accept... 'wsgi_run_once': False, 'remote_port': '48403'}>"
p96
sS'raw_args'
p97
S'None'
p98
sS'get_vars'
p99
S'<Storage {}>'
p100
sS'folder'
p101
S"'/media/DADOS/Projetos/web2py/applications/marcado/'"
p102
sS'now'
p103
S'datetime.datetime(2011, 1, 17, 23, 14, 37, 345319)'
p104
sS'post_vars'
p105
S'<Storage {}>'
p106
ssS'frames'
p107
(lp108
(dp109
S'file'
p110
S'/media/DADOS/Projetos/web2py/gluon/restricted.py'
p111
sS'dump'
p112
(dp113
S'code'
p114
S"'# coding: utf8\\ndef index():\\n    # Consultando os...agenda))\\n\\nresponse._vars=response._caller(index)\\n'"
p115
sS'layer'
p116
S"'/media/DADOS/Projetos/web2py/applications/marcado/controllers/agenda.py'"
p117
sS'global compile2'
p118
S'<function compile2>'
p119
sS'ccode'
p120
S'undefined'
p121
ssS'lnum'
p122
I186
sS'lines'
p123
(dp124
I181
S''
sI182
S'    try:'
p125
sI183
S'        if type(code) == types.CodeType:'
p126
sI184
S'            ccode = code'
p127
sI185
S'        else:'
p128
sI186
S'            ccode = compile2(code,layer)'
p129
sI187
S''
sI188
S'        exec ccode in environment'
p130
sI189
S'    except HTTP:'
p131
sI190
S'        raise'
p132
ssS'call'
p133
S"(code='# coding: utf8\\ndef index():\\n    # Consultando os...agenda))\\n\\nresponse._vars=response._caller(index)\\n', environment={'A': <class 'gluon.html.A'>, 'Auth': <class 'gluon.tools.Auth'>, 'B': <class 'gluon.html.B'>, 'BEAUTIFY': <class 'gluon.html.BEAUTIFY'>, 'BODY': <class 'gluon.html.BODY'>, 'BR': <class 'gluon.html.BR'>, 'CENTER': <class 'gluon.html.CENTER'>, 'CLEANUP': <class 'gluon.validators.CLEANUP'>, 'CODE': <class 'gluon.html.CODE'>, 'CRYPT': <class 'gluon.validators.CRYPT'>, ...}, layer='/media/DADOS/Projetos/web2py/applications/marcado/controllers/agenda.py')"
p134
sS'func'
p135
S'restricted'
p136
sa(dp137
g110
S'/media/DADOS/Projetos/web2py/gluon/restricted.py'
p138
sg112
(dp139
S'builtincompile'
p140
S'<built-in function compile>'
p141
sS'code'
p142
S"'# coding: utf8\\ndef index():\\n    # Consultando os...agenda))\\n\\nresponse._vars=response._caller(index)\\n'"
p143
sS'code.rstrip'
p144
S'<built-in method rstrip of str object>'
p145
sS').replace'
p146
g121
sS'layer'
p147
S"'/media/DADOS/Projetos/web2py/applications/marcado/controllers/agenda.py'"
p148
ssg122
I173
sg123
(dp149
I168
S''
sI169
S'def compile2(code,layer):'
p150
sI170
S'    """'
p151
sI171
S"    The +'\\n' is necessary else compile fails when code ends in a comment."
p152
sI172
S'    """'
p153
sI173
S"    return compile(code.rstrip().replace('\\r\\n','\\n')+'\\n', layer, 'exec')"
p154
sI174
S''
sI175
S"def restricted(code, environment={}, layer='Unknown'):"
p155
sI176
S'    """'
p156
sI177
S'    runs code in environment and returns the output. if an exception occurs'
p157
ssg133
S"(code='# coding: utf8\\ndef index():\\n    # Consultando os...agenda))\\n\\nresponse._vars=response._caller(index)\\n', layer='/media/DADOS/Projetos/web2py/applications/marcado/controllers/agenda.py')"
p158
sg135
S'compile2'
p159
sasS'pyver'
p160
S'Python 2.6.6: /usr/bin/python'
p161
sS'session'
p162
(dp163
S'_formkey[cliente/None]'
p164
S"'961c2134-2ab3-4ad9-9fbd-f77254f0c88c'"
p165
sS'last_query'
p166
S"'db.agenda.id > 0 and db.agenda.funcionario == se...th.user.id and db.agenda.cliente == db.cliente.id'"
p167
sS'_formkey[agenda_create]'
p168
S"'9315ed81-eaab-47fd-a28f-82c9a735cfef'"
p169
sS'flash'
p170
S'None'
p171
sS'_formkey[agenda/None]'
p172
S"'4e401505-9e54-4d9b-b9f6-74f14558681f'"
p173
sS'auth'
p174
S"<Storage {'expiration': 3600, 'user': <Storage {..., 1, 17, 23, 14, 37, 345319), 'remember': False}>"
p175
sS'last_orderby'
p176
S'None'
p177
sS'_formkey[auth_user_create]'
p178
S"'5080b08a-b13e-47a9-8ca5-893fec7c03cb'"
p179
sS'_formkey[servicos/None]'
p180
S"'e97ed043-4266-4eef-a601-5b717e787219'"
p181
sS'_formkey[login]'
p182
S"'8b2efa8b-58c7-4443-8b5f-dbf4e0e9fb01'"
p183
sS'_formkey[cliente_1]'
p184
S"'a143a046-dce6-4642-8bc6-e56d01b2f4d4'"
p185
ssS'etype'
p186
S"<type 'exceptions.SyntaxError'>"
p187
sS'date'
p188
S'Mon Jan 17 23:14:37 2011'
p189
sS'response'
p190
(dp191
S'status'
p192
S'200'
p193
sg70
S'<cStringIO.StringO object>'
p194
sg87
S"<SimpleCookie: session_id_marcado='127.0.0.1-5cd82eda-12da-45b8-807e-87dd160ceafb'>"
p195
sS'_vars'
p196
S'None'
p197
sS'title'
p198
S"'Marcado!'"
p199
sS'session_file'
p200
S"<open file '/media/DADOS/Projetos/web2py/applica...cd82eda-12da-45b8-807e-87dd160ceafb', mode 'rb+'>"
p201
sS'flash'
p202
S"''"
p203
sS'_custom_rollback'
p204
S'None'
p205
sS'session_id'
p206
S"'127.0.0.1-5cd82eda-12da-45b8-807e-87dd160ceafb'"
p207
sS'headers'
p208
S"<Storage {'Expires': 'Tue, 18 Jan 2011 01:14:37 ...he, must-revalidate, post-check=0, pre-check=0'}>"
p209
sS'meta'
p210
S"<Storage {'keywords': 'web2py, python, framework...Enterprise Framework', 'author': 'Gilson Filho'}>"
p211
sS'session_filename'
p212
S"'/media/DADOS/Projetos/web2py/applications/marcad...ns/127.0.0.1-5cd82eda-12da-45b8-807e-87dd160ceafb'"
p213
sS'postprocessing'
p214
S'[]'
p215
sS'menu'
p216
S"[(<lazyT 'Home'>, False, <gluon.html.XML object>, []), (<lazyT 'This App'>, False, <gluon.html.XML object>, [(<lazyT 'Controller'>, False, <gluon.html.XML object>), (<lazyT 'View'>, False, <gluon.html.XML object>), (<lazyT 'Layout'>, False, <gluon.html.XML object>), (<lazyT 'Stylesheet'>, False, <gluon.html.XML object>), (<lazyT 'DB Model'>, False, <gluon.html.XML object>), (<lazyT 'Menu Model'>, False, <gluon.html.XML object>), (<lazyT 'Database'>, False, <gluon.html.XML object>), (<lazyT 'Errors'>, False, <gluon.html.XML object>), (<lazyT 'About'>, False, <gluon.html.XML object>)]), (<lazyT 'Resources'>, False, None, [(<lazyT 'Documentation'>, False, 'http://www.web2py.com/book', [(<lazyT 'Preface'>, False, 'http://www.web2py.com/book/default/chapter/00'), (<lazyT 'Introduction'>, False, 'http://www.web2py.com/book/default/chapter/01'), (<lazyT 'Python'>, False, 'http://www.web2py.com/book/default/chapter/02'), (<lazyT 'Overview'>, False, 'http://www.web2py.com/book/default/chapter/03'), (<lazyT 'The Core'>, False, 'http://www.web2py.com/book/default/chapter/04'), (<lazyT 'The Views'>, False, 'http://www.web2py.com/book/default/chapter/05'), (<lazyT 'Database'>, False, 'http://www.web2py.com/book/default/chapter/06'), (<lazyT 'Forms and Validators'>, False, 'http://www.web2py.com/book/default/chapter/07'), (<lazyT 'Access Control'>, False, 'http://www.web2py.com/book/default/chapter/08'), (<lazyT 'Services'>, False, 'http://www.web2py.com/book/default/chapter/09'), (<lazyT 'Ajax Recipes'>, False, 'http://www.web2py.com/book/default/chapter/10'), (<lazyT 'Deployment Recipes'>, False, 'http://www.web2py.com/book/default/chapter/11'), (<lazyT 'Other Recipes'>, False, 'http://www.web2py.com/book/default/chapter/12'), (<lazyT 'Buy this book'>, False, 'http://stores.lulu.com/web2py')]), (<lazyT 'Community'>, False, None, [(<lazyT 'Groups'>, False, 'http://www.web2py.com/examples/default/usergroups'), (<lazyT 'Twitter'>, False, 'http://twitter.com/web2py'), (<lazyT 'Live chat'>, False, 'http://mibbit.com/?channel=%23web2py&server=irc.mibbit.net'), (<lazyT 'User Voice'>, False, 'http://web2py.uservoice.com/')]), (<lazyT 'Web2py'>, False, 'http://www.web2py.com', [(<lazyT 'Download'>, False, 'http://www.web2py.com/examples/default/download'), (<lazyT 'Support'>, False, 'http://www.web2py.com/examples/default/support'), (<lazyT 'Quick Examples'>, False, 'http://web2py.com/examples/default/examples'), (<lazyT 'FAQ'>, False, 'http://web2py.com/AlterEgo'), (<lazyT 'Free Applications'>, False, 'http://web2py.com/appliances'), (<lazyT 'Plugins'>, False, 'http://web2py.com/plugins'), (<lazyT 'Recipes'>, False, 'http://web2pyslices.com/'), (<lazyT 'Demo'>, False, 'http://web2py.com/demo_admin'), (<lazyT 'Semantic'>, False, 'http://web2py.com/semantic'), (<lazyT 'Layouts'>, False, 'http://web2py.com/layouts'), (<lazyT 'Videos'>, False, 'http://www.web2py.com/examples/default/videos/')])])]"
p217
sS'_view_environment'
p218
S"{'A': <class 'gluon.html.A'>, 'Auth': <class 'gluon.tools.Auth'>, 'B': <class 'gluon.html.B'>, 'BEAUTIFY': <class 'gluon.html.BEAUTIFY'>, 'BODY': <class 'gluon.html.BODY'>, 'BR': <class 'gluon.html.BR'>, 'CENTER': <class 'gluon.html.CENTER'>, 'CLEANUP': <class 'gluon.validators.CLEANUP'>, 'CODE': <class 'gluon.html.CODE'>, 'CRYPT': <class 'gluon.validators.CRYPT'>, ...}"
p219
sS'session_id_name'
p220
S"'session_id_marcado'"
p221
sS'_custom_commit'
p222
S'None'
p223
sS'_caller'
p224
S'<function <lambda>>'
p225
sS'files'
p226
S'[]'
p227
sS'view'
p228
S"'agenda/index.html'"
p229
ssS'locals'
p230
(dp231
g3
S"'/media/DADOS/Projetos/web2py/applications/marcado/controllers/agenda.py'"
p232
sg5
S"'# coding: utf8\\ndef index():\\n    # Consultando os...agenda))\\n\\nresponse._vars=response._caller(index)\\n'"
p233
sssS'traceback'
p234
S'Traceback (most recent call last):\n  File "/media/DADOS/Projetos/web2py/gluon/restricted.py", line 186, in restricted\n    ccode = compile2(code,layer)\n  File "/media/DADOS/Projetos/web2py/gluon/restricted.py", line 173, in compile2\n    return compile(code.rstrip().replace(\'\\r\\n\',\'\\n\')+\'\\n\', layer, \'exec\')\n  File "/media/DADOS/Projetos/web2py/applications/marcado/controllers/agenda.py", line 4\n    query = db.agenda.id > 0 and db.agenda.funcionario == session.auth.user.id and db.agenda.cliente = db.cliente.id\nSyntaxError: can\'t assign to operator\n'
p235
s.