(dp1
S'output'
p2
S''
sS'layer'
p3
S'/media/DADOS/Projetos/web2py/applications/marcado/controllers/agenda.py'
p4
sS'code'
p5
S'# coding: utf8\ndef index():\n    # Consultando os servicos do usuario logado\n    query = db.agenda.id > 0 and db.agenda.funcionario == session.auth.user.id\n    agenda = db(query).select(orderby = db.agenda.data)\n    \n    for agenda in ag:\n        print agenda.cliente.nome\n\n    return dict()\n\ndef novo():\n    return dict(form = crud.create(db.agenda))\n\nresponse._vars=response._caller(index)\n'
p6
sS'snapshot'
p7
(dp8
S'exception'
p9
(dp10
S'__hash__'
p11
S"<method-wrapper '__hash__' of exceptions.NameError object>"
p12
sS'__setattr__'
p13
S"<method-wrapper '__setattr__' of exceptions.NameError object>"
p14
sS'__reduce_ex__'
p15
S'<built-in method __reduce_ex__ of exceptions.NameError object>'
p16
sS'__getslice__'
p17
S"<method-wrapper '__getslice__' of exceptions.NameError object>"
p18
sS'__getitem__'
p19
S"<method-wrapper '__getitem__' of exceptions.NameError object>"
p20
sS'__setstate__'
p21
S'<built-in method __setstate__ of exceptions.NameError object>'
p22
sS'args'
p23
S'("global name \'ag\' is not defined",)'
p24
sS'__reduce__'
p25
S'<built-in method __reduce__ of exceptions.NameError object>'
p26
sS'__str__'
p27
S"<method-wrapper '__str__' of exceptions.NameError object>"
p28
sS'__format__'
p29
S'<built-in method __format__ of exceptions.NameError object>'
p30
sS'__getattribute__'
p31
S"<method-wrapper '__getattribute__' of exceptions.NameError object>"
p32
sS'__class__'
p33
S"<type 'exceptions.NameError'>"
p34
sS'__unicode__'
p35
S'<built-in method __unicode__ of exceptions.NameError object>'
p36
sS'__delattr__'
p37
S"<method-wrapper '__delattr__' of exceptions.NameError object>"
p38
sS'__subclasshook__'
p39
S'<built-in method __subclasshook__ of type object>'
p40
sS'__repr__'
p41
S"<method-wrapper '__repr__' of exceptions.NameError object>"
p42
sS'__dict__'
p43
S'{}'
p44
sS'__sizeof__'
p45
S'<built-in method __sizeof__ of exceptions.NameError object>'
p46
sS'__doc__'
p47
S"'Name not found globally.'"
p48
sS'__init__'
p49
S"<method-wrapper '__init__' of exceptions.NameError object>"
p50
sS'__new__'
p51
S'<built-in method __new__ of type object>'
p52
ssS'evalue'
p53
S"global name 'ag' is not defined"
p54
sS'request'
p55
(dp56
S'function'
p57
S"'index'"
p58
sS'body'
p59
S'<cStringIO.StringO object>'
p60
sS'wsgi'
p61
S"<Storage {'start_response': <function <lambda> a...>, 'HTTP_ACCEPT_ENCODING': 'gzip,deflate,sdch'}}>"
p62
sS'extension'
p63
S"'html'"
p64
sS'vars'
p65
S'<Storage {}>'
p66
sS'cid'
p67
S'None'
p68
sS'url'
p69
S'<gluon.html.XML object>'
p70
sS'raw_extension'
p71
S'None'
p72
sg23
S'[]'
p73
sS'controller'
p74
S"'agenda'"
p75
sS'cookies'
p76
S"<SimpleCookie: session_id_admin='127.0.0.1-04483...'127.0.0.1-95e908f2-dd4f-4ff1-8538-8f3335ccc46d'>"
p77
sS'application'
p78
S"'marcado'"
p79
sS'ajax'
p80
S'False'
p81
sS'client'
p82
S"'127.0.0.1'"
p83
sS'env'
p84
S"<Storage {'wsgi_multithread': True, 'http_accept... 'wsgi_run_once': False, 'remote_port': '59628'}>"
p85
sS'raw_args'
p86
S'None'
p87
sS'get_vars'
p88
S'<Storage {}>'
p89
sS'folder'
p90
S"'/media/DADOS/Projetos/web2py/applications/marcado/'"
p91
sS'now'
p92
S'datetime.datetime(2011, 1, 17, 22, 51, 0, 13821)'
p93
sS'post_vars'
p94
S'<Storage {}>'
p95
ssS'frames'
p96
(lp97
(dp98
S'file'
p99
S'/media/DADOS/Projetos/web2py/gluon/restricted.py'
p100
sS'dump'
p101
(dp102
S'environment'
p103
S"{'A': <class 'gluon.html.A'>, 'Auth': <class 'gluon.tools.Auth'>, 'B': <class 'gluon.html.B'>, 'BEAUTIFY': <class 'gluon.html.BEAUTIFY'>, 'BODY': <class 'gluon.html.BODY'>, 'BR': <class 'gluon.html.BR'>, 'CENTER': <class 'gluon.html.CENTER'>, 'CLEANUP': <class 'gluon.validators.CLEANUP'>, 'CODE': <class 'gluon.html.CODE'>, 'CRYPT': <class 'gluon.validators.CRYPT'>, ...}"
p104
sS'ccode'
p105
S'<code object <module> at 0x1d62a80, file "/media...lications/marcado/controllers/agenda.py", line 2>'
p106
ssS'lnum'
p107
I188
sS'lines'
p108
(dp109
I192
S'        # XXX Show exception in Wing IDE if running in debugger'
p110
sI183
S'        if type(code) == types.CodeType:'
p111
sI184
S'            ccode = code'
p112
sI185
S'        else:'
p113
sI186
S'            ccode = compile2(code,layer)'
p114
sI187
S''
sI188
S'        exec ccode in environment'
p115
sI189
S'    except HTTP:'
p116
sI190
S'        raise'
p117
sI191
S'    except Exception:'
p118
ssS'call'
p119
S"(code='# coding: utf8\\ndef index():\\n    # Consultando os...agenda))\\n\\nresponse._vars=response._caller(index)\\n', environment={'A': <class 'gluon.html.A'>, 'Auth': <class 'gluon.tools.Auth'>, 'B': <class 'gluon.html.B'>, 'BEAUTIFY': <class 'gluon.html.BEAUTIFY'>, 'BODY': <class 'gluon.html.BODY'>, 'BR': <class 'gluon.html.BR'>, 'CENTER': <class 'gluon.html.CENTER'>, 'CLEANUP': <class 'gluon.validators.CLEANUP'>, 'CODE': <class 'gluon.html.CODE'>, 'CRYPT': <class 'gluon.validators.CRYPT'>, ...}, layer='/media/DADOS/Projetos/web2py/applications/marcado/controllers/agenda.py')"
p120
sS'func'
p121
S'restricted'
p122
sa(dp123
g99
S'/media/DADOS/Projetos/web2py/applications/marcado/controllers/agenda.py'
p124
sg101
(dp125
sg107
I15
sg108
(dp126
I4
S'    query = db.agenda.id > 0 and db.agenda.funcionario == session.auth.user.id'
p127
sI5
S'    agenda = db(query).select(orderby = db.agenda.data)'
p128
sI6
S''
sI7
S'    for agenda in ag:'
p129
sI8
S'        print agenda.cliente.nome'
p130
sI9
S''
sI10
S'    return dict()'
p131
sI11
S''
sI12
S'def novo():'
p132
sI13
S'    return dict(form = crud.create(db.agenda))'
p133
ssg119
S'()'
p134
sg121
S'<module>'
p135
sa(dp136
g99
S'/media/DADOS/Projetos/web2py/gluon/globals.py'
p137
sg101
(dp138
S'self'
p139
S'undefined'
p140
sS'f'
S'<function index>'
p141
ssg107
I95
sg108
(dp142
I96
S'        self._view_environment = None'
p143
sI97
S'        self._custom_commit = None'
p144
sI98
S'        self._custom_rollback = None'
p145
sI99
S''
sI90
S"        self.flash = ''           # used by the default view layout"
p146
sI91
S'        self.meta = Storage()     # used by web2py_ajax.html'
p147
sI92
S'        self.menu = []            # used by the default view layout'
p148
sI93
S'        self.files = []           # used by web2py_ajax.html'
p149
sI94
S'        self._vars = None'
p150
sI95
S'        self._caller = lambda f: f()'
p151
ssg119
S'(f=<function index>)'
p152
sg121
S'<lambda>'
p153
sa(dp154
g99
S'/media/DADOS/Projetos/web2py/applications/marcado/controllers/agenda.py'
p155
sg101
(dp156
S'ag'
p157
g140
sS'agenda'
p158
S'<gluon.dal.Rows object>'
p159
ssg107
I7
sg108
(dp160
I2
S'def index():'
p161
sI3
S'    # Consultando os servicos do usuario logado'
p162
sI4
S'    query = db.agenda.id > 0 and db.agenda.funcionario == session.auth.user.id'
p163
sI5
S'    agenda = db(query).select(orderby = db.agenda.data)'
p164
sI6
S''
sI7
S'    for agenda in ag:'
p165
sI8
S'        print agenda.cliente.nome'
p166
sI9
S''
sI10
S'    return dict()'
p167
sI11
S''
ssg119
S'()'
p168
sg121
S'index'
p169
sasS'pyver'
p170
S'Python 2.6.6: /usr/bin/python'
p171
sS'session'
p172
(dp173
S'last_query'
p174
S"'db.agenda.id > 0 and db.agenda.funcionario == session.auth.user.id'"
p175
sS'_formkey[agenda_create]'
p176
S"'68c8d970-101e-408e-845b-58bc780d515b'"
p177
sS'flash'
p178
S'None'
p179
sS'_formkey[agenda/None]'
p180
S"'88a29c55-cbf7-4f39-bfb0-909df3d8a9e2'"
p181
sS'auth'
p182
S"<Storage {'expiration': 3600, 'user': <Storage {...11, 1, 17, 22, 51, 0, 13821), 'remember': False}>"
p183
sS'last_orderby'
p184
S'None'
p185
sS'_formkey[login]'
p186
S"'bd617577-29cc-4cee-9620-311faf2baed3'"
p187
ssS'etype'
p188
S"<type 'exceptions.NameError'>"
p189
sS'date'
p190
S'Mon Jan 17 22:51:00 2011'
p191
sS'response'
p192
(dp193
S'status'
p194
S'200'
p195
sg59
S'<cStringIO.StringO object>'
p196
sg76
S"<SimpleCookie: session_id_marcado='127.0.0.1-5cd82eda-12da-45b8-807e-87dd160ceafb'>"
p197
sS'_vars'
p198
S'None'
p199
sS'title'
p200
S"'Marcado!'"
p201
sS'session_file'
p202
S"<open file '/media/DADOS/Projetos/web2py/applica...cd82eda-12da-45b8-807e-87dd160ceafb', mode 'rb+'>"
p203
sS'flash'
p204
S"''"
p205
sS'_custom_rollback'
p206
S'None'
p207
sS'session_id'
p208
S"'127.0.0.1-5cd82eda-12da-45b8-807e-87dd160ceafb'"
p209
sS'headers'
p210
S"<Storage {'Expires': 'Tue, 18 Jan 2011 00:51:00 ...he, must-revalidate, post-check=0, pre-check=0'}>"
p211
sS'meta'
p212
S"<Storage {'keywords': 'web2py, python, framework...Enterprise Framework', 'author': 'Gilson Filho'}>"
p213
sS'session_filename'
p214
S"'/media/DADOS/Projetos/web2py/applications/marcad...ns/127.0.0.1-5cd82eda-12da-45b8-807e-87dd160ceafb'"
p215
sS'postprocessing'
p216
S'[]'
p217
sS'menu'
p218
S"[(<lazyT 'Home'>, False, <gluon.html.XML object>, []), (<lazyT 'This App'>, False, <gluon.html.XML object>, [(<lazyT 'Controller'>, False, <gluon.html.XML object>), (<lazyT 'View'>, False, <gluon.html.XML object>), (<lazyT 'Layout'>, False, <gluon.html.XML object>), (<lazyT 'Stylesheet'>, False, <gluon.html.XML object>), (<lazyT 'DB Model'>, False, <gluon.html.XML object>), (<lazyT 'Menu Model'>, False, <gluon.html.XML object>), (<lazyT 'Database'>, False, <gluon.html.XML object>), (<lazyT 'Errors'>, False, <gluon.html.XML object>), (<lazyT 'About'>, False, <gluon.html.XML object>)]), (<lazyT 'Resources'>, False, None, [(<lazyT 'Documentation'>, False, 'http://www.web2py.com/book', [(<lazyT 'Preface'>, False, 'http://www.web2py.com/book/default/chapter/00'), (<lazyT 'Introduction'>, False, 'http://www.web2py.com/book/default/chapter/01'), (<lazyT 'Python'>, False, 'http://www.web2py.com/book/default/chapter/02'), (<lazyT 'Overview'>, False, 'http://www.web2py.com/book/default/chapter/03'), (<lazyT 'The Core'>, False, 'http://www.web2py.com/book/default/chapter/04'), (<lazyT 'The Views'>, False, 'http://www.web2py.com/book/default/chapter/05'), (<lazyT 'Database'>, False, 'http://www.web2py.com/book/default/chapter/06'), (<lazyT 'Forms and Validators'>, False, 'http://www.web2py.com/book/default/chapter/07'), (<lazyT 'Access Control'>, False, 'http://www.web2py.com/book/default/chapter/08'), (<lazyT 'Services'>, False, 'http://www.web2py.com/book/default/chapter/09'), (<lazyT 'Ajax Recipes'>, False, 'http://www.web2py.com/book/default/chapter/10'), (<lazyT 'Deployment Recipes'>, False, 'http://www.web2py.com/book/default/chapter/11'), (<lazyT 'Other Recipes'>, False, 'http://www.web2py.com/book/default/chapter/12'), (<lazyT 'Buy this book'>, False, 'http://stores.lulu.com/web2py')]), (<lazyT 'Community'>, False, None, [(<lazyT 'Groups'>, False, 'http://www.web2py.com/examples/default/usergroups'), (<lazyT 'Twitter'>, False, 'http://twitter.com/web2py'), (<lazyT 'Live chat'>, False, 'http://mibbit.com/?channel=%23web2py&server=irc.mibbit.net'), (<lazyT 'User Voice'>, False, 'http://web2py.uservoice.com/')]), (<lazyT 'Web2py'>, False, 'http://www.web2py.com', [(<lazyT 'Download'>, False, 'http://www.web2py.com/examples/default/download'), (<lazyT 'Support'>, False, 'http://www.web2py.com/examples/default/support'), (<lazyT 'Quick Examples'>, False, 'http://web2py.com/examples/default/examples'), (<lazyT 'FAQ'>, False, 'http://web2py.com/AlterEgo'), (<lazyT 'Free Applications'>, False, 'http://web2py.com/appliances'), (<lazyT 'Plugins'>, False, 'http://web2py.com/plugins'), (<lazyT 'Recipes'>, False, 'http://web2pyslices.com/'), (<lazyT 'Demo'>, False, 'http://web2py.com/demo_admin'), (<lazyT 'Semantic'>, False, 'http://web2py.com/semantic'), (<lazyT 'Layouts'>, False, 'http://web2py.com/layouts'), (<lazyT 'Videos'>, False, 'http://www.web2py.com/examples/default/videos/')])])]"
p219
sS'_view_environment'
p220
S"{'A': <class 'gluon.html.A'>, 'Auth': <class 'gluon.tools.Auth'>, 'B': <class 'gluon.html.B'>, 'BEAUTIFY': <class 'gluon.html.BEAUTIFY'>, 'BODY': <class 'gluon.html.BODY'>, 'BR': <class 'gluon.html.BR'>, 'CENTER': <class 'gluon.html.CENTER'>, 'CLEANUP': <class 'gluon.validators.CLEANUP'>, 'CODE': <class 'gluon.html.CODE'>, 'CRYPT': <class 'gluon.validators.CRYPT'>, ...}"
p221
sS'session_id_name'
p222
S"'session_id_marcado'"
p223
sS'_custom_commit'
p224
S'None'
p225
sS'_caller'
p226
S'<function <lambda>>'
p227
sS'files'
p228
S'[]'
p229
sS'view'
p230
S"'agenda/index.html'"
p231
ssS'locals'
p232
(dp233
S'query'
p234
S'<gluon.dal.Query object>'
p235
sS'agenda'
p236
S'<gluon.dal.Rows object>'
p237
sssS'traceback'
p238
S'Traceback (most recent call last):\n  File "/media/DADOS/Projetos/web2py/gluon/restricted.py", line 188, in restricted\n    exec ccode in environment\n  File "/media/DADOS/Projetos/web2py/applications/marcado/controllers/agenda.py", line 15, in <module>\n  File "/media/DADOS/Projetos/web2py/gluon/globals.py", line 95, in <lambda>\n    self._caller = lambda f: f()\n  File "/media/DADOS/Projetos/web2py/applications/marcado/controllers/agenda.py", line 7, in index\n    for agenda in ag:\nNameError: global name \'ag\' is not defined\n'
p239
s.