(dp1
S'output'
p2
S''
sS'layer'
p3
S'/opt/web2py/applications/marcado/views/funcionarios/index.html'
p4
sS'code'
p5
S'response.write(\'<!DOCTYPE html>\\n<html lang="\', escape=False)\nresponse.write(T.accepted_language or \'en\')\nresponse.write(\'" class="no-js"><!-- no-js need it for modernzr -->\\n    <head>\\n        <meta charset="utf-8" />        \\n        <meta http-equiv="X-UA-Compatible" content="IE=edge,chrome=1">\\n    \\n        <title>\', escape=False)\nresponse.write(response.title or request.application)\nresponse.write(\'</title>\\n    \\n        <!-- http://dev.w3.org/html5/markup/meta.name.html -->\\n        <meta name="application-name" content="\', escape=False)\nresponse.write(request.application)\nresponse.write(\'" /> \\n    \\n        <!-- Speaking of Google, don\\\'t forget to set your site up: http://google.com/webmasters -->\\n        <meta name="google-site-verification" content="" />\\n    \\n        <!-- Place favicon.ico and apple-touch-icon.png in the root of your domain and delete these references -->\\n        <link rel="shortcut icon" href="\', escape=False)\nresponse.write(URL(\'static\',\'favicon.ico\'))\nresponse.write(\'" type="image/x-icon">\\n    \\n        <!-- All JavaScript at the bottom, except for Modernizr which enables HTML5 elements & feature detects -->\\n        <script src="\', escape=False)\nresponse.write(URL(\'static\',\'js/modernizr-1.6.min.js\'))\nresponse.write(\'"></script>\\n    \\n        <!-- Arquivos CSS e Javascript -->\\n        \', escape=False)\nresponse.files.append(URL(\'static\',\'css/base.css\'))\nresponse.write(\'\\n        \', escape=False)\nresponse.files.append(URL(\'static\',\'css/formularios.css\'))\nresponse.write(\'              \\n        \', escape=False)\nresponse.files.append(URL(\'static\',\'css/superfish.css\'))\nresponse.write(\'\\n        \\n        <!-- Modulo de clientes -->\\n        \', escape=False)\nresponse.files.append(URL(\'static\',\'css/modulos/clientes/clientes.css\'))\nresponse.write(\'\\n        \', escape=False)\nresponse.files.append(URL(\'static\',\'js/modulos/clientes/clientes.js\'))\nresponse.write(\'\\n        \\n        <!-- Modulo de Funcionarios -->\\n        \', escape=False)\nresponse.files.append(URL(\'static\',\'css/modulos/funcionarios/funcionarios.css\'))\nresponse.write(\'\\n        \\n        <!-- Modulo de Servicos -->\\n        \', escape=False)\nresponse.files.append(URL(\'static\',\'css/modulos/servicos/servicos.css\'))\nresponse.write(\'\\n        \\n        \', escape=False)\n#------ include web2py specific js code (jquery, calendar, form stuff) ------\nresponse.write(\'\\n        \', escape=False)\nresponse.files.insert(0,URL(\'static\',\'js/jquery.js\'))\nresponse.files.insert(1,URL(\'static\',\'css/custom-theme/jquery-ui-1.8.7.custom.css\'))\nresponse.files.insert(2,URL(\'static\',\'js/jquery-ui-1.8.7.custom.min.js\'))\nresponse.files.insert(3,URL(\'static\',\'js/jquery.maskedinput-1.1.4.pack.js\'))\nfor _item in response.meta or []:\n    response.write(\'\\n     <meta name="\', escape=False)\n    response.write(_item)\n    response.write(\'" content="\', escape=False)\n    response.write(response.meta[_item])\n    response.write(\'" />\', escape=False)\n    pass\nfor _k,_file in enumerate(response.files or []):\n    if _file in response.files[:_k]:\n        continue\n    _file0=_file.lower().split(\'?\')[0]\n    if _file0.endswith(\'.css\'):\n        response.write(\'\\n     <link href="\', escape=False)\n        response.write(_file)\n        response.write(\'" rel="stylesheet" type="text/css" />\', escape=False)\n    elif _file0.endswith(\'.js\'):\n        response.write(\'\\n     <script src="\', escape=False)\n        response.write(_file)\n        response.write(\'" type="text/javascript"></script>\', escape=False)\n        pass\n    pass\nresponse.write(\'\\n  \\n<script type="text/javascript"><!--\\nfunction popup(url) {\\n  newwindow=window.open(url,\\\'name\\\',\\\'height=400,width=600\\\');\\n  if (window.focus) newwindow.focus();\\n  return false;\\n}\\nfunction collapse(id) { jQuery(\\\'#\\\'+id).slideToggle(); }\\nfunction fade(id,value) { if(value>0) jQuery(\\\'#\\\'+id).hide().fadeIn(\\\'slow\\\'); else jQuery(\\\'#\\\'+id).show().fadeOut(\\\'slow\\\'); }\\nfunction ajax(u,s,t) {\\n    query = \\\'\\\';\\n    if (typeof s == "string") {\\n        d = jQuery(s).serialize();\\n        if(d){ query = d; }\\n    } else {\\n        pcs = [];\\n        for(i=0; i<s.length; i++) {\\n            q = jQuery("[name="+s[i]+"]").serialize();\\n            if(q){pcs.push(q);}\\n        }\\n        if (pcs.length>0){query = pcs.join("&");}\\n    }\\n    jQuery.ajax({type: "POST", url: u, data: query, success: function(msg) { if(t) { if(t==\\\':eval\\\') eval(msg); else jQuery("#" + t).html(msg); } } }); \\n}\\n\\nString.prototype.reverse = function () { return this.split(\\\'\\\').reverse().join(\\\'\\\');};\\nfunction web2py_ajax_init() {\\n  jQuery(\\\'.hidden\\\').hide();\\n  jQuery(\\\'.error\\\').hide().slideDown(\\\'slow\\\');\\n  jQuery(\\\'.flash\\\').click(function() { jQuery(this).fadeOut(\\\'slow\\\'); return false; });\\n  // jQuery(\\\'input[type=submit]\\\').click(function(){var t=jQuery(this);t.hide();t.after(\\\'<input class="submit_disabled" disabled="disabled" type="submit" name="\\\'+t.attr("name")+\\\'_dummy" value="\\\'+t.val()+\\\'">\\\')});\\n  jQuery(\\\'input.integer\\\').keyup(function(){this.value=this.value.reverse().replace(/[^0-9\\\\-]|\\\\-(?=.)/g,\\\'\\\').reverse();});\\n  jQuery(\\\'input.double,input.decimal\\\').keyup(function(){this.value=this.value.reverse().replace(/[^0-9\\\\-\\\\.]|[\\\\-](?=.)|[\\\\.](?=[0-9]*[\\\\.])/g,\\\'\\\').reverse();});\\n  jQuery("input[type=\\\'checkbox\\\'].delete").each(function(){jQuery(this).click(function() { if(this.checked) if(!confirm("\', escape=False)\nresponse.write(T(\'Sure you want to delete this object?\'))\nresponse.write(\'")) this.checked=false; });});\\n  try {\\n      jQuery("input.date").focus( function() {\\n          jQuery("input.date").datepicker({\\n              inline: true,\\n              dateFormat: "dd/mm/yy"\\n          });    \\n      }); \\n      jQuery("input.date").click( function() {\\n          jQuery("input.date").datepicker({\\n              inline: true,\\n              dateFormat: "dd/mm/yy"\\n          });    \\n      });      \\n  } catch(e) {};\\n  try { jQuery("input.datetime").focus( function() {\\n      jQuery("input.datetime").datepicker({\\n          inline: true,\\n          dateFormat: "dd/mm/yy"\\n      })  \\n  }); } catch(e) {};\\n  try { jQuery("input.time").timeEntry(); } catch(e) {};\\n};\\n\\njQuery(document).ready(function() {   \\n   var flash = jQuery(\\\'.flash\\\');\\n   flash.hide();\\n   if(flash.html()) flash.slideDown();\\n   web2py_ajax_init();\\n});\\nfunction web2py_trap_form(action,target) {\\n   jQuery(\\\'#\\\'+target+\\\' form\\\').each(function(i){\\n      var form=jQuery(this);\\n      if(!form.hasClass(\\\'no_trap\\\'))\\n        form.submit(function(obj){\\n         jQuery(\\\'.flash\\\').hide().html(\\\'\\\');\\n         web2py_ajax_page(\\\'post\\\',action,form.serialize(),target);\\n         return false;\\n      });\\n   });\\n}\\nfunction web2py_ajax_page(method,action,data,target) {\\n  jQuery.ajax({\\\'type\\\':method,\\\'url\\\':action,\\\'data\\\':data,\\n    \\\'beforeSend\\\':function(xhr) {\\n      xhr.setRequestHeader(\\\'web2py-component-location\\\',document.location);\\n      xhr.setRequestHeader(\\\'web2py-component-element\\\',target);},\\n    \\\'complete\\\':function(xhr,text){\\n      var html=xhr.responseText;\\n      var content=xhr.getResponseHeader(\\\'web2py-component-content\\\'); \\n      var command=xhr.getResponseHeader(\\\'web2py-component-command\\\');\\n      var flash=xhr.getResponseHeader(\\\'web2py-component-flash\\\');\\n      var t = jQuery(\\\'#\\\'+target);\\n      if(content==\\\'prepend\\\') t.prepend(html); \\n      else if(content==\\\'append\\\') t.append(html);\\n      else if(content!=\\\'hide\\\') t.html(html);  \\n      web2py_trap_form(action,target);\\n      web2py_ajax_init();      \\n      if(command) eval(command);\\n      if(flash) jQuery(\\\'.flash\\\').html(flash).slideDown();\\n      }\\n    });\\n}\\nfunction web2py_component(action,target) {\\n    jQuery(document).ready(function(){ web2py_ajax_page(\\\'get\\\',action,null,target); });\\n}\\n//--></script>\\n\', escape=False)\nresponse.write(\'\\n       \\n    </head>\\n\\n    <!-- paulirish.com/2008/conditional-stylesheets-vs-css-hacks-answer-neither/ -->  \\n    <!--[if lt IE 7 ]> <body class="ie6"> <![endif]-->\\n    <!--[if IE 7 ]>    <body class="ie7"> <![endif]-->\\n    <!--[if IE 8 ]>    <body class="ie8"> <![endif]-->\\n    <!--[if IE 9 ]>    <body class="ie9"> <![endif]-->\\n    <!--[if (gt IE 9)|!(IE)]><!--><body><!--<![endif]-->\\n    <div id="headBlock">\\n        <div class="headWrap">\\n            <div class="headTitle">\\n                <a href="#">Marcado!</a>\\n\\n            </div>\\n            <div class="headMenus">\\n                <ul class="mainNav">\\n                    <li class="usuario">\\n                        \', escape=False)\nif session.auth:\n    response.write(\'\\n                          <b>Usu\\xc3\\xa1rio:</b> \\n                          <a href="\', escape=False)\n    response.write(URL(request.application, \'default\', \'user\', args = \'profile\'))\n    response.write(\'">\\n                            \', escape=False)\n    response.write(session.auth.user.username)\n    response.write(\'\\n                          </a> | \\n                          <a href="\', escape=False)\n    URL(request.application, \'default,\'user\',args=\'change_password\'\n    response.write(\'">Alterar Senha</a>\\n                        \', escape=False)\n    pass\nresponse.write(\'                    \\n                    </li>\\n                </ul>\\n                \', escape=False)\nresponse.write(\'<ul class="subNav">\\n    <!-- \', escape=False)\nresponse.write(MENU(response.menu,_class=\'sf-menu\'))\nresponse.write(\' -->\\n    <li class="current_page_item">\\n        <a href="#" class="button">\\n            <span class="link_menu menu_agenda">Agenda</span>\\n        </a>\\n    </li>\\n    <li>\\n        <a href="\', escape=False)\nresponse.write(URL(request.application, \'agenda\', \'novo\'))\nresponse.write(\'" class="button">\\n            <span class="link_menu menu_horario">Hor\\xc3\\xa1rios</span>\\n        </a>\\n    </li>\\n    <li>\\n        <a href="\', escape=False)\nresponse.write(URL(request.application, \'clientes\',\'index\'))\nresponse.write(\'" class="button">\\n            <span class="link_menu menu_clientes">Clientes</span>\\n        </a>                    \\n    </li>\\n    <li>\\n        <a href="\', escape=False)\nresponse.write(URL(request.application, \'servicos\', \'index\'))\nresponse.write(\'" class="button">\\n            <span class="link_menu menu_pedidos">Servi\\xc3\\xa7os</span>\\n        </a>                    \\n    </li>\\n    <li>\\n        <a href="\', escape=False)\nresponse.write(URL(request.application, \'funcionarios\', \'index\'))\nresponse.write(\'" class="button">\\n            <span class="link_menu menu_perfil">Funcion\\xc3\\xa1rios</span>\\n        </a>                    \\n    </li>  \\n    <!--<li>\\n        <a href="\', escape=False)\nresponse.write(URL(request.application, \'default\', \'user\', args = \'change_password\'))\nresponse.write(\'" class="button">\\n            <span class="link_menu menu_alterar_senha">Alterar Senha</span>\\n        </a>                    \\n        </li>                                  \\n    -->\\n    <li>\\n        <a href="\', escape=False)\nresponse.write(URL(request.application, \'default\', \'user\', args = \'logout\'))\nresponse.write(\'" class="button">\\n            <span class="link_menu menu_sair">Sair</span>\\n        </a>                    \\n    </li>                \\n</ul>\\n\', escape=False)\nresponse.write(\'               \\n            </div>\\n        </div>\\n        <div class="headFooter"></div>\\n    </div>\\n    \\n    <div id="wrapper">\\n        <div id="mainArea">\\n            \', escape=False)\nif response.flash:\n    response.write(\'\\n                <div class="ui-widget" style="margin-top: 20px; padding: 0 .7em;">\\n                    <div class="ui-state-highlight ui-corner-all">\\n                        <p>\\n                            <span class="ui-icon ui-icon-info" style="float: left; margin-right: .3em;"></span>\\n                            \', escape=False)\n    response.write(response.flash or \'\')\n    response.write(\'\\n                        </p>\\n                    </div>\\n                </div> <!-- notification div -->        \\n            \', escape=False)\n    pass\nresponse.write(\'\\n            \', escape=False)\nresponse.write(\'\\n\', escape=False)\nif funcionarios:\n    response.write(\'\\n    <h2>Lista de Funcion\\xc3\\xa1rios Cadastrados</h2>\\n    \', escape=False)\n    response.write(table)\n    response.write(\'\\n\', escape=False)\nelse:\n    response.write(\'\\n    <center>\\n        <h3>\', escape=False)\n    response.write(mensagem)\n    response.write(\'</h3>\\n    </center>\\n\', escape=False)\n    pass\nresponse.write(\'\\n<br />\\n<div class="navegacao">\\n    <center><a href="\', escape=False)\nresponse.write(URL(request.application, \'funcionarios\',\'novo\'))\nresponse.write(\'">Novo Funcion\\xc3\\xa1rio</a></center>\\n</div>\\n\', escape=False)\nresponse.write(\' \\n        </div>\\n    </div>      \\n    \\n    <div class="pageFooter">\\n        <div class="footerContents">\\n            Powered by \\n            <a href="http://web2py.com"><img src="\', escape=False)\nresponse.write(URL(\'static\',\'images/poweredby.png\'))\nresponse.write(\'" alt="web2py"/></a><br />\\n        </div>\\n    </div>   \\n  </body>\\n</html>\\n\', escape=False)'
p6
sS'snapshot'
p7
(dp8
S'exception'
p9
(dp10
S'__getslice__'
p11
S"<method-wrapper '__getslice__' of exceptions.SyntaxError object>"
p12
sS'text'
p13
S'"    URL(request.application, \'default,\'user\',args=\'change_password\'\\n"'
p14
sS'__str__'
p15
S"<method-wrapper '__str__' of exceptions.SyntaxError object>"
p16
sS'__reduce__'
p17
S'<built-in method __reduce__ of exceptions.SyntaxError object>'
p18
sS'__dict__'
p19
S'{}'
p20
sS'__sizeof__'
p21
S'<built-in method __sizeof__ of exceptions.SyntaxError object>'
p22
sS'__init__'
p23
S"<method-wrapper '__init__' of exceptions.SyntaxError object>"
p24
sS'__setattr__'
p25
S"<method-wrapper '__setattr__' of exceptions.SyntaxError object>"
p26
sS'__reduce_ex__'
p27
S'<built-in method __reduce_ex__ of exceptions.SyntaxError object>'
p28
sS'__new__'
p29
S'<built-in method __new__ of type object>'
p30
sS'__format__'
p31
S'<built-in method __format__ of exceptions.SyntaxError object>'
p32
sS'__class__'
p33
S"<type 'exceptions.SyntaxError'>"
p34
sS'filename'
p35
S"'/opt/web2py/applications/marcado/views/funcionarios/index.html'"
p36
sS'lineno'
p37
S'63'
p38
sS'msg'
p39
S"'invalid syntax'"
p40
sS'__doc__'
p41
S"'Invalid syntax.'"
p42
sS'__getitem__'
p43
S"<method-wrapper '__getitem__' of exceptions.SyntaxError object>"
p44
sS'__setstate__'
p45
S'<built-in method __setstate__ of exceptions.SyntaxError object>'
p46
sS'__getattribute__'
p47
S"<method-wrapper '__getattribute__' of exceptions.SyntaxError object>"
p48
sS'print_file_and_line'
p49
S'None'
p50
sS'args'
p51
S'(\'invalid syntax\', (\'/opt/web2py/applications/marcado/views/funcionarios/index.html\', 63, 43, "    URL(request.application, \'default,\'user\',args=\'change_password\'\\n"))'
p52
sS'__subclasshook__'
p53
S'<built-in method __subclasshook__ of type object>'
p54
sS'offset'
p55
S'43'
p56
sS'__unicode__'
p57
S'<built-in method __unicode__ of exceptions.SyntaxError object>'
p58
sS'__delattr__'
p59
S"<method-wrapper '__delattr__' of exceptions.SyntaxError object>"
p60
sS'__repr__'
p61
S"<method-wrapper '__repr__' of exceptions.SyntaxError object>"
p62
sS'__hash__'
p63
S"<method-wrapper '__hash__' of exceptions.SyntaxError object>"
p64
ssS'evalue'
p65
S'invalid syntax (index.html, line 63)'
p66
sS'request'
p67
(dp68
S'function'
p69
S"'index'"
p70
sS'body'
p71
S'<cStringIO.StringO object>'
p72
sS'wsgi'
p73
S"<Storage {'start_response': <function <lambda> a...e', 'PATH_INFO': '/marcado/funcionarios/index'}}>"
p74
sS'extension'
p75
S"'html'"
p76
sS'vars'
p77
S'<Storage {}>'
p78
sS'cid'
p79
S'None'
p80
sS'url'
p81
S'<gluon.html.XML object>'
p82
sS'raw_extension'
p83
S'None'
p84
sg51
S'[]'
p85
sS'controller'
p86
S"'funcionarios'"
p87
sS'cookies'
p88
S"<SimpleCookie: session_id_admin='127.0.0.1-0b66e...'127.0.0.1-a7697b8b-0000-4cd0-b886-44769aecb709'>"
p89
sS'application'
p90
S"'marcado'"
p91
sS'ajax'
p92
S'False'
p93
sS'client'
p94
S"'127.0.0.1'"
p95
sS'env'
p96
S"<Storage {'wsgi_multithread': True, 'http_accept...46', 'path_info': '/marcado/funcionarios/index'}>"
p97
sS'raw_args'
p98
S'None'
p99
sS'get_vars'
p100
S'<Storage {}>'
p101
sS'folder'
p102
S"'/opt/web2py/applications/marcado/'"
p103
sS'now'
p104
S'datetime.datetime(2011, 1, 14, 23, 39, 12, 699120)'
p105
sS'post_vars'
p106
S'<Storage {}>'
p107
ssS'frames'
p108
(lp109
(dp110
S'file'
p111
S'/opt/web2py/gluon/restricted.py'
p112
sS'dump'
p113
(dp114
S'code'
p115
S'\'response.write(\\\'<!DOCTYPE html>\\\\n<html lang="\\\', ...  </div>   \\\\n  </body>\\\\n</html>\\\\n\\\', escape=False)\''
p116
sS'layer'
p117
S"'/opt/web2py/applications/marcado/views/funcionarios/index.html'"
p118
sS'global compile2'
p119
S'<function compile2>'
p120
sS'ccode'
p121
S'undefined'
p122
ssS'lnum'
p123
I186
sS'lines'
p124
(dp125
I181
S''
sI182
S'    try:'
p126
sI183
S'        if type(code) == types.CodeType:'
p127
sI184
S'            ccode = code'
p128
sI185
S'        else:'
p129
sI186
S'            ccode = compile2(code,layer)'
p130
sI187
S''
sI188
S'        exec ccode in environment'
p131
sI189
S'    except HTTP:'
p132
sI190
S'        raise'
p133
ssS'call'
p134
S'(code=\'response.write(\\\'<!DOCTYPE html>\\\\n<html lang="\\\', ...  </div>   \\\\n  </body>\\\\n</html>\\\\n\\\', escape=False)\', environment={\'A\': <class \'gluon.html.A\'>, \'Auth\': <class \'gluon.tools.Auth\'>, \'B\': <class \'gluon.html.B\'>, \'BEAUTIFY\': <class \'gluon.html.BEAUTIFY\'>, \'BODY\': <class \'gluon.html.BODY\'>, \'BR\': <class \'gluon.html.BR\'>, \'CENTER\': <class \'gluon.html.CENTER\'>, \'CLEANUP\': <class \'gluon.validators.CLEANUP\'>, \'CODE\': <class \'gluon.html.CODE\'>, \'CRYPT\': <class \'gluon.validators.CRYPT\'>, ...}, layer=\'/opt/web2py/applications/marcado/views/funcionarios/index.html\')'
p135
sS'func'
p136
S'restricted'
p137
sa(dp138
g111
S'/opt/web2py/gluon/restricted.py'
p139
sg113
(dp140
S'builtincompile'
p141
S'<built-in function compile>'
p142
sS'code'
p143
S'\'response.write(\\\'<!DOCTYPE html>\\\\n<html lang="\\\', ...  </div>   \\\\n  </body>\\\\n</html>\\\\n\\\', escape=False)\''
p144
sS'code.rstrip'
p145
S'<built-in method rstrip of str object>'
p146
sS').replace'
p147
g122
sS'layer'
p148
S"'/opt/web2py/applications/marcado/views/funcionarios/index.html'"
p149
ssg123
I173
sg124
(dp150
I168
S''
sI169
S'def compile2(code,layer):'
p151
sI170
S'    """'
p152
sI171
S"    The +'\\n' is necessary else compile fails when code ends in a comment."
p153
sI172
S'    """'
p154
sI173
S"    return compile(code.rstrip().replace('\\r\\n','\\n')+'\\n', layer, 'exec')"
p155
sI174
S''
sI175
S"def restricted(code, environment={}, layer='Unknown'):"
p156
sI176
S'    """'
p157
sI177
S'    runs code in environment and returns the output. if an exception occurs'
p158
ssg134
S'(code=\'response.write(\\\'<!DOCTYPE html>\\\\n<html lang="\\\', ...  </div>   \\\\n  </body>\\\\n</html>\\\\n\\\', escape=False)\', layer=\'/opt/web2py/applications/marcado/views/funcionarios/index.html\')'
p159
sg136
S'compile2'
p160
sasS'pyver'
p161
S'Python 2.6.6: /usr/bin/python'
p162
sS'session'
p163
(dp164
S'_formkey[change_password]'
p165
S"'af79cc03-4175-4eef-b29b-2f3941373e74'"
p166
sS'flash'
p167
S'None'
p168
sS'_formkey[profile]'
p169
S"'0ed61b0e-bb4e-45b3-8f50-2aea6053bf0b'"
p170
sS'auth'
p171
S"<Storage {'expiration': 3600, 'user': <Storage {..., 1, 14, 23, 39, 12, 699120), 'remember': False}>"
p172
sS'_formkey[login]'
p173
S"'59d8195e-ce90-4890-9a75-2a479555041e'"
p174
ssS'etype'
p175
S"<type 'exceptions.SyntaxError'>"
p176
sS'date'
p177
S'Fri Jan 14 23:39:12 2011'
p178
sS'response'
p179
(dp180
S'status'
p181
S'200'
p182
sg71
S'<cStringIO.StringO object>'
p183
sg88
S"<SimpleCookie: session_id_marcado='127.0.0.1-a7697b8b-0000-4cd0-b886-44769aecb709'>"
p184
sS'_vars'
p185
S"{'funcionarios': <gluon.dal.Rows object>, 'table': <gluon.html.__tag__ object>}"
p186
sS'title'
p187
S"'Marcado!'"
p188
sS'session_file'
p189
S"<open file '/opt/web2py/applications/marcado/ses...7697b8b-0000-4cd0-b886-44769aecb709', mode 'rb+'>"
p190
sS'flash'
p191
S"''"
p192
sS'_custom_rollback'
p193
S'None'
p194
sS'session_id'
p195
S"'127.0.0.1-a7697b8b-0000-4cd0-b886-44769aecb709'"
p196
sS'headers'
p197
S"<Storage {'Expires': 'Sat, 15 Jan 2011 01:39:12 ...he, must-revalidate, post-check=0, pre-check=0'}>"
p198
sS'meta'
p199
S"<Storage {'keywords': 'web2py, python, framework...Enterprise Framework', 'author': 'Gilson Filho'}>"
p200
sS'session_filename'
p201
S"'/opt/web2py/applications/marcado/sessions/127.0.0.1-a7697b8b-0000-4cd0-b886-44769aecb709'"
p202
sS'postprocessing'
p203
S'[]'
p204
sS'menu'
p205
S"[(<lazyT 'Home'>, False, <gluon.html.XML object>, []), (<lazyT 'This App'>, False, <gluon.html.XML object>, [(<lazyT 'Controller'>, False, <gluon.html.XML object>), (<lazyT 'View'>, False, <gluon.html.XML object>), (<lazyT 'Layout'>, False, <gluon.html.XML object>), (<lazyT 'Stylesheet'>, False, <gluon.html.XML object>), (<lazyT 'DB Model'>, False, <gluon.html.XML object>), (<lazyT 'Menu Model'>, False, <gluon.html.XML object>), (<lazyT 'Database'>, False, <gluon.html.XML object>), (<lazyT 'Errors'>, False, <gluon.html.XML object>), (<lazyT 'About'>, False, <gluon.html.XML object>)]), (<lazyT 'Resources'>, False, None, [(<lazyT 'Documentation'>, False, 'http://www.web2py.com/book', [(<lazyT 'Preface'>, False, 'http://www.web2py.com/book/default/chapter/00'), (<lazyT 'Introduction'>, False, 'http://www.web2py.com/book/default/chapter/01'), (<lazyT 'Python'>, False, 'http://www.web2py.com/book/default/chapter/02'), (<lazyT 'Overview'>, False, 'http://www.web2py.com/book/default/chapter/03'), (<lazyT 'The Core'>, False, 'http://www.web2py.com/book/default/chapter/04'), (<lazyT 'The Views'>, False, 'http://www.web2py.com/book/default/chapter/05'), (<lazyT 'Database'>, False, 'http://www.web2py.com/book/default/chapter/06'), (<lazyT 'Forms and Validators'>, False, 'http://www.web2py.com/book/default/chapter/07'), (<lazyT 'Access Control'>, False, 'http://www.web2py.com/book/default/chapter/08'), (<lazyT 'Services'>, False, 'http://www.web2py.com/book/default/chapter/09'), (<lazyT 'Ajax Recipes'>, False, 'http://www.web2py.com/book/default/chapter/10'), (<lazyT 'Deployment Recipes'>, False, 'http://www.web2py.com/book/default/chapter/11'), (<lazyT 'Other Recipes'>, False, 'http://www.web2py.com/book/default/chapter/12'), (<lazyT 'Buy this book'>, False, 'http://stores.lulu.com/web2py')]), (<lazyT 'Community'>, False, None, [(<lazyT 'Groups'>, False, 'http://www.web2py.com/examples/default/usergroups'), (<lazyT 'Twitter'>, False, 'http://twitter.com/web2py'), (<lazyT 'Live chat'>, False, 'http://mibbit.com/?channel=%23web2py&server=irc.mibbit.net'), (<lazyT 'User Voice'>, False, 'http://web2py.uservoice.com/')]), (<lazyT 'Web2py'>, False, 'http://www.web2py.com', [(<lazyT 'Download'>, False, 'http://www.web2py.com/examples/default/download'), (<lazyT 'Support'>, False, 'http://www.web2py.com/examples/default/support'), (<lazyT 'Quick Examples'>, False, 'http://web2py.com/examples/default/examples'), (<lazyT 'FAQ'>, False, 'http://web2py.com/AlterEgo'), (<lazyT 'Free Applications'>, False, 'http://web2py.com/appliances'), (<lazyT 'Plugins'>, False, 'http://web2py.com/plugins'), (<lazyT 'Recipes'>, False, 'http://web2pyslices.com/'), (<lazyT 'Demo'>, False, 'http://web2py.com/demo_admin'), (<lazyT 'Semantic'>, False, 'http://web2py.com/semantic'), (<lazyT 'Layouts'>, False, 'http://web2py.com/layouts'), (<lazyT 'Videos'>, False, 'http://www.web2py.com/examples/default/videos/')])])]"
p206
sS'_view_environment'
p207
S"{'A': <class 'gluon.html.A'>, 'Auth': <class 'gluon.tools.Auth'>, 'B': <class 'gluon.html.B'>, 'BEAUTIFY': <class 'gluon.html.BEAUTIFY'>, 'BODY': <class 'gluon.html.BODY'>, 'BR': <class 'gluon.html.BR'>, 'CENTER': <class 'gluon.html.CENTER'>, 'CLEANUP': <class 'gluon.validators.CLEANUP'>, 'CODE': <class 'gluon.html.CODE'>, 'CRYPT': <class 'gluon.validators.CRYPT'>, ...}"
p208
sS'session_id_name'
p209
S"'session_id_marcado'"
p210
sS'_custom_commit'
p211
S'None'
p212
sS'_caller'
p213
S'<function <lambda>>'
p214
sS'files'
p215
S'[<gluon.html.XML object>, <gluon.html.XML object>, <gluon.html.XML object>, <gluon.html.XML object>, <gluon.html.XML object>]'
p216
sS'view'
p217
S"'funcionarios/index.html'"
p218
ssS'locals'
p219
(dp220
g3
S"'/opt/web2py/applications/marcado/views/funcionarios/index.html'"
p221
sg5
S'\'response.write(\\\'<!DOCTYPE html>\\\\n<html lang="\\\', ...  </div>   \\\\n  </body>\\\\n</html>\\\\n\\\', escape=False)\''
p222
sssS'traceback'
p223
S'Traceback (most recent call last):\n  File "/opt/web2py/gluon/restricted.py", line 186, in restricted\n    ccode = compile2(code,layer)\n  File "/opt/web2py/gluon/restricted.py", line 173, in compile2\n    return compile(code.rstrip().replace(\'\\r\\n\',\'\\n\')+\'\\n\', layer, \'exec\')\n  File "/opt/web2py/applications/marcado/views/funcionarios/index.html", line 63\n    URL(request.application, \'default,\'user\',args=\'change_password\'\n                                          ^\nSyntaxError: invalid syntax\n'
p224
s.