(dp1
S'output'
p2
S''
sS'layer'
p3
S'/media/DADOS/Projetos/web2py/applications/marcado/controllers/agenda.py'
p4
sS'code'
p5
S'# coding: utf8\n\n\'\'\'\nImportando o simplejson para gerar os arquivos\nno formato JSON e enviando para o calendario\n\'\'\'\nimport simplejson as json\n@service.json\ndef index():\n    # Consultando os servicos do usuario logado\n    query = db.agenda.id > 0 and db.agenda.funcionario == session.auth.user.id and db.agenda.cliente == db.cliente.id\n    agenda = db(query).select(orderby = db.agenda.data)\n    teste2 = list(agenda)\n    for ag in agenda:\n        # results = dict()\n        #results["id"] = ag.agenda.id\n        #results["title"] = ag.cliente.nome\n        #results["start"] = ag.agenda.data.strftime(\'%Y-%m-%d\')\n        teste = json.dumps({"id":ag.agenda.id,"title":ag.cliente.nome,"start":ag.agenda.data.strftime(\'%Y-%m-%d\')},indent=4,escape=False)\n    \n    print teste\n    return dict(teste = response.json(teste))\n    #print results\n    #return results\n\n\n@service.json\ndef dados_agenda():\n    # Consultando os servicos do usuario logado\n    query = db.agenda.id > 0 and db.agenda.funcionario == session.auth.user.id and db.agenda.cliente == db.cliente.id\n    agenda = db(query).select(orderby = db.agenda.data)\n    \n    teste = []\n    for ag in agenda:\n        results = dict()\n        results["id"] = ag.agenda.id\n        results["title"] = ag.cliente.nome\n        results["start"] = ag.agenda.data.strftime(\'%Y-%m-%d\')\n        # teste = json.dumps({\'id\':ag.agenda.id,\'title\':ag.cliente.nome,\'start\':ag.agenda.data.strftime(\'%Y-%m-%d\')}, indent=4)\n    \n    # print teste\n    # return dict(teste = teste)    \n    return results\n\n\ndef novo():\n    return dict(form = crud.create(db.agenda))\n\nresponse._vars=response._caller(index)\n'
p6
sS'snapshot'
p7
(dp8
S'exception'
p9
(dp10
S'__hash__'
p11
S"<method-wrapper '__hash__' of exceptions.TypeError object>"
p12
sS'__setattr__'
p13
S"<method-wrapper '__setattr__' of exceptions.TypeError object>"
p14
sS'__reduce_ex__'
p15
S'<built-in method __reduce_ex__ of exceptions.TypeError object>'
p16
sS'__getslice__'
p17
S"<method-wrapper '__getslice__' of exceptions.TypeError object>"
p18
sS'__getitem__'
p19
S"<method-wrapper '__getitem__' of exceptions.TypeError object>"
p20
sS'__setstate__'
p21
S'<built-in method __setstate__ of exceptions.TypeError object>'
p22
sS'args'
p23
S'("__init__() got an unexpected keyword argument \'escape\'",)'
p24
sS'__reduce__'
p25
S'<built-in method __reduce__ of exceptions.TypeError object>'
p26
sS'__str__'
p27
S"<method-wrapper '__str__' of exceptions.TypeError object>"
p28
sS'__format__'
p29
S'<built-in method __format__ of exceptions.TypeError object>'
p30
sS'__getattribute__'
p31
S"<method-wrapper '__getattribute__' of exceptions.TypeError object>"
p32
sS'__class__'
p33
S"<type 'exceptions.TypeError'>"
p34
sS'__unicode__'
p35
S'<built-in method __unicode__ of exceptions.TypeError object>'
p36
sS'__delattr__'
p37
S"<method-wrapper '__delattr__' of exceptions.TypeError object>"
p38
sS'__subclasshook__'
p39
S'<built-in method __subclasshook__ of type object>'
p40
sS'__repr__'
p41
S"<method-wrapper '__repr__' of exceptions.TypeError object>"
p42
sS'__dict__'
p43
S'{}'
p44
sS'__sizeof__'
p45
S'<built-in method __sizeof__ of exceptions.TypeError object>'
p46
sS'__doc__'
p47
S"'Inappropriate argument type.'"
p48
sS'__init__'
p49
S"<method-wrapper '__init__' of exceptions.TypeError object>"
p50
sS'__new__'
p51
S'<built-in method __new__ of type object>'
p52
ssS'evalue'
p53
S"__init__() got an unexpected keyword argument 'escape'"
p54
sS'request'
p55
(dp56
S'function'
p57
S"'index'"
p58
sS'body'
p59
S'<cStringIO.StringO object>'
p60
sS'wsgi'
p61
S"<Storage {'start_response': <function <lambda> a...>, 'HTTP_ACCEPT_ENCODING': 'gzip,deflate,sdch'}}>"
p62
sS'extension'
p63
S"'html'"
p64
sS'vars'
p65
S'<Storage {}>'
p66
sS'cid'
p67
S'None'
p68
sS'url'
p69
S'<gluon.html.XML object>'
p70
sS'raw_extension'
p71
S'None'
p72
sg23
S'[]'
p73
sS'controller'
p74
S"'agenda'"
p75
sS'cookies'
p76
S"<SimpleCookie: session_id_marcado='127.0.0.1-5ae...'127.0.0.1-39078f1a-813c-4353-b212-303c03605242'>"
p77
sS'application'
p78
S"'marcado'"
p79
sS'ajax'
p80
S'False'
p81
sS'client'
p82
S"'127.0.0.1'"
p83
sS'env'
p84
S"<Storage {'wsgi_multithread': True, 'http_accept... 'wsgi_run_once': False, 'remote_port': '51885'}>"
p85
sS'raw_args'
p86
S'None'
p87
sS'get_vars'
p88
S'<Storage {}>'
p89
sS'folder'
p90
S"'/media/DADOS/Projetos/web2py/applications/marcado/'"
p91
sS'now'
p92
S'datetime.datetime(2011, 1, 19, 21, 27, 16, 188362)'
p93
sS'post_vars'
p94
S'<Storage {}>'
p95
ssS'frames'
p96
(lp97
(dp98
S'file'
p99
S'/media/DADOS/Projetos/web2py/gluon/restricted.py'
p100
sS'dump'
p101
(dp102
S'environment'
p103
S"{'A': <class 'gluon.html.A'>, 'Auth': <class 'gluon.tools.Auth'>, 'B': <class 'gluon.html.B'>, 'BEAUTIFY': <class 'gluon.html.BEAUTIFY'>, 'BODY': <class 'gluon.html.BODY'>, 'BR': <class 'gluon.html.BR'>, 'CENTER': <class 'gluon.html.CENTER'>, 'CLEANUP': <class 'gluon.validators.CLEANUP'>, 'CODE': <class 'gluon.html.CODE'>, 'CRYPT': <class 'gluon.validators.CRYPT'>, ...}"
p104
sS'ccode'
p105
S'<code object <module> at 0x24307b0, file "/media...lications/marcado/controllers/agenda.py", line 6>'
p106
ssS'lnum'
p107
I188
sS'lines'
p108
(dp109
I192
S'        # XXX Show exception in Wing IDE if running in debugger'
p110
sI183
S'        if type(code) == types.CodeType:'
p111
sI184
S'            ccode = code'
p112
sI185
S'        else:'
p113
sI186
S'            ccode = compile2(code,layer)'
p114
sI187
S''
sI188
S'        exec ccode in environment'
p115
sI189
S'    except HTTP:'
p116
sI190
S'        raise'
p117
sI191
S'    except Exception:'
p118
ssS'call'
p119
S'(code="# coding: utf8\\n\\n\'\'\'\\nImportando o simplejson para...agenda))\\n\\nresponse._vars=response._caller(index)\\n", environment={\'A\': <class \'gluon.html.A\'>, \'Auth\': <class \'gluon.tools.Auth\'>, \'B\': <class \'gluon.html.B\'>, \'BEAUTIFY\': <class \'gluon.html.BEAUTIFY\'>, \'BODY\': <class \'gluon.html.BODY\'>, \'BR\': <class \'gluon.html.BR\'>, \'CENTER\': <class \'gluon.html.CENTER\'>, \'CLEANUP\': <class \'gluon.validators.CLEANUP\'>, \'CODE\': <class \'gluon.html.CODE\'>, \'CRYPT\': <class \'gluon.validators.CRYPT\'>, ...}, layer=\'/media/DADOS/Projetos/web2py/applications/marcado/controllers/agenda.py\')'
p120
sS'func'
p121
S'restricted'
p122
sa(dp123
g99
S'/media/DADOS/Projetos/web2py/applications/marcado/controllers/agenda.py'
p124
sg101
(dp125
sg107
I49
sg108
(dp126
I38
S'        results["start"] = ag.agenda.data.strftime(\'%Y-%m-%d\')'
p127
sI39
S"        # teste = json.dumps({'id':ag.agenda.id,'title':ag.cliente.nome,'start':ag.agenda.data.strftime('%Y-%m-%d')}, indent=4)"
p128
sI40
S''
sI41
S'    # print teste'
p129
sI42
S'    # return dict(teste = teste)'
p130
sI43
S'    return results'
p131
sI44
S''
sI45
S''
sI46
S'def novo():'
p132
sI47
S'    return dict(form = crud.create(db.agenda))'
p133
ssg119
S'()'
p134
sg121
S'<module>'
p135
sa(dp136
g99
S'/media/DADOS/Projetos/web2py/gluon/globals.py'
p137
sg101
(dp138
S'self'
p139
S'undefined'
p140
sS'f'
S'<function index>'
p141
ssg107
I95
sg108
(dp142
I96
S'        self._view_environment = None'
p143
sI97
S'        self._custom_commit = None'
p144
sI98
S'        self._custom_rollback = None'
p145
sI99
S''
sI90
S"        self.flash = ''           # used by the default view layout"
p146
sI91
S'        self.meta = Storage()     # used by web2py_ajax.html'
p147
sI92
S'        self.menu = []            # used by the default view layout'
p148
sI93
S'        self.files = []           # used by web2py_ajax.html'
p149
sI94
S'        self._vars = None'
p150
sI95
S'        self._caller = lambda f: f()'
p151
ssg119
S'(f=<function index>)'
p152
sg121
S'<lambda>'
p153
sa(dp154
g99
S'/media/DADOS/Projetos/web2py/applications/marcado/controllers/agenda.py'
p155
sg101
(dp156
S'builtinFalse'
p157
g81
sS'ag.agenda'
p158
S"<Row {'hora': datetime.time(12, 0), 'update_reco...elete_record': <function <lambda> at 0x2451398>}>"
p159
sS'indent'
p160
g140
sS'ag.cliente.nome'
p161
S"'Fulano Silva'"
p162
sS'ag'
p163
S"<Row {'cliente': <Row {'telefone': '(61) 8172-81...ete_record': <function <lambda> at 0x2451398>}>}>"
p164
sS'global json'
p165
S"<module 'simplejson' from '/usr/lib/pymodules/python2.6/simplejson/__init__.pyc'>"
p166
sS'json.dumps'
p167
S'<function dumps>'
p168
sS'ag.agenda.data'
p169
S'datetime.date(2011, 1, 17)'
p170
sS'teste'
p171
g140
sS'escape'
p172
g140
sS'ag.agenda.id'
p173
S'1'
sS'ag.cliente'
p174
S"<Row {'telefone': '(61) 8172-8171', 'nome': 'Ful...elete_record': <function <lambda> at 0x24512a8>}>"
p175
sS'ag.agenda.data.strftime'
p176
S'<built-in method strftime of datetime.date object>'
p177
ssg107
I19
sg108
(dp178
I14
S'    for ag in agenda:'
p179
sI15
S'        # results = dict()'
p180
sI16
S'        #results["id"] = ag.agenda.id'
p181
sI17
S'        #results["title"] = ag.cliente.nome'
p182
sI18
S'        #results["start"] = ag.agenda.data.strftime(\'%Y-%m-%d\')'
p183
sI19
S'        teste = json.dumps({"id":ag.agenda.id,"title":ag.cliente.nome,"start":ag.agenda.data.strftime(\'%Y-%m-%d\')},indent=4,escape=False)'
p184
sI20
S''
sI21
S'    print teste'
p185
sI22
S'    return dict(teste = response.json(teste))'
p186
sI23
S'    #print results'
p187
ssg119
S'()'
p188
sg121
S'index'
p189
sa(dp190
g99
S'/usr/lib/pymodules/python2.6/simplejson/__init__.py'
p191
sg101
(dp192
S'obj'
p193
S"{'id': 1, 'start': '2011-01-17', 'title': 'Fulano Silva'}"
p194
sS'use_decimal'
p195
g81
sS'kw'
p196
S"{'escape': False}"
p197
sS').encode'
p198
g140
ssg107
I268
sg108
(dp199
I263
S'        cls = JSONEncoder'
p200
sI264
S'    return cls('
p201
sI265
S'        skipkeys=skipkeys, ensure_ascii=ensure_ascii,'
p202
sI266
S'        check_circular=check_circular, allow_nan=allow_nan, indent=indent,'
p203
sI267
S'        separators=separators, encoding=encoding, default=default,'
p204
sI268
S'        use_decimal=use_decimal, **kw).encode(obj)'
p205
sI269
S''
sI270
S''
sI271
S'_default_decoder = JSONDecoder(encoding=None, object_hook=None,'
p206
sI272
S'                               object_pairs_hook=None)'
p207
ssg119
S"(obj={'id': 1, 'start': '2011-01-17', 'title': 'Fulano Silva'}, skipkeys=False, ensure_ascii=True, check_circular=True, allow_nan=True, cls=<class 'simplejson.encoder.JSONEncoder'>, indent=4, separators=None, encoding='utf-8', default=None, use_decimal=False, **kw={'escape': False})"
p208
sg121
S'dumps'
p209
sasS'pyver'
p210
S'Python 2.6.6: /usr/bin/python'
p211
sS'session'
p212
(dp213
S'flash'
p214
S'None'
p215
sS'auth'
p216
S"<Storage {'expiration': 3600, 'user': <Storage {..., 1, 19, 21, 27, 16, 188362), 'remember': False}>"
p217
sS'_formkey[login]'
p218
S"'2e2383fb-a16c-4680-b009-3f5b65d15f65'"
p219
ssS'etype'
p220
S"<type 'exceptions.TypeError'>"
p221
sS'date'
p222
S'Wed Jan 19 21:27:16 2011'
p223
sS'response'
p224
(dp225
S'status'
p226
S'200'
p227
sg59
S'<cStringIO.StringO object>'
p228
sg76
S"<SimpleCookie: session_id_marcado='127.0.0.1-5ae8e052-6925-4d62-9149-5a1541b0708c'>"
p229
sS'_vars'
p230
S'None'
p231
sS'title'
p232
S"'Marcado!'"
p233
sS'session_file'
p234
S"<open file '/media/DADOS/Projetos/web2py/applica...ae8e052-6925-4d62-9149-5a1541b0708c', mode 'rb+'>"
p235
sS'flash'
p236
S"''"
p237
sS'_custom_rollback'
p238
S'None'
p239
sS'session_id'
p240
S"'127.0.0.1-5ae8e052-6925-4d62-9149-5a1541b0708c'"
p241
sS'headers'
p242
S"<Storage {'Expires': 'Wed, 19 Jan 2011 23:27:16 ...he, must-revalidate, post-check=0, pre-check=0'}>"
p243
sS'meta'
p244
S"<Storage {'keywords': 'web2py, python, framework...Enterprise Framework', 'author': 'Gilson Filho'}>"
p245
sS'session_filename'
p246
S"'/media/DADOS/Projetos/web2py/applications/marcad...ns/127.0.0.1-5ae8e052-6925-4d62-9149-5a1541b0708c'"
p247
sS'postprocessing'
p248
S'[]'
p249
sS'menu'
p250
S"[(<lazyT 'Home'>, False, <gluon.html.XML object>, []), (<lazyT 'This App'>, False, <gluon.html.XML object>, [(<lazyT 'Controller'>, False, <gluon.html.XML object>), (<lazyT 'View'>, False, <gluon.html.XML object>), (<lazyT 'Layout'>, False, <gluon.html.XML object>), (<lazyT 'Stylesheet'>, False, <gluon.html.XML object>), (<lazyT 'DB Model'>, False, <gluon.html.XML object>), (<lazyT 'Menu Model'>, False, <gluon.html.XML object>), (<lazyT 'Database'>, False, <gluon.html.XML object>), (<lazyT 'Errors'>, False, <gluon.html.XML object>), (<lazyT 'About'>, False, <gluon.html.XML object>)]), (<lazyT 'Resources'>, False, None, [(<lazyT 'Documentation'>, False, 'http://www.web2py.com/book', [(<lazyT 'Preface'>, False, 'http://www.web2py.com/book/default/chapter/00'), (<lazyT 'Introduction'>, False, 'http://www.web2py.com/book/default/chapter/01'), (<lazyT 'Python'>, False, 'http://www.web2py.com/book/default/chapter/02'), (<lazyT 'Overview'>, False, 'http://www.web2py.com/book/default/chapter/03'), (<lazyT 'The Core'>, False, 'http://www.web2py.com/book/default/chapter/04'), (<lazyT 'The Views'>, False, 'http://www.web2py.com/book/default/chapter/05'), (<lazyT 'Database'>, False, 'http://www.web2py.com/book/default/chapter/06'), (<lazyT 'Forms and Validators'>, False, 'http://www.web2py.com/book/default/chapter/07'), (<lazyT 'Access Control'>, False, 'http://www.web2py.com/book/default/chapter/08'), (<lazyT 'Services'>, False, 'http://www.web2py.com/book/default/chapter/09'), (<lazyT 'Ajax Recipes'>, False, 'http://www.web2py.com/book/default/chapter/10'), (<lazyT 'Deployment Recipes'>, False, 'http://www.web2py.com/book/default/chapter/11'), (<lazyT 'Other Recipes'>, False, 'http://www.web2py.com/book/default/chapter/12'), (<lazyT 'Buy this book'>, False, 'http://stores.lulu.com/web2py')]), (<lazyT 'Community'>, False, None, [(<lazyT 'Groups'>, False, 'http://www.web2py.com/examples/default/usergroups'), (<lazyT 'Twitter'>, False, 'http://twitter.com/web2py'), (<lazyT 'Live chat'>, False, 'http://mibbit.com/?channel=%23web2py&server=irc.mibbit.net'), (<lazyT 'User Voice'>, False, 'http://web2py.uservoice.com/')]), (<lazyT 'Web2py'>, False, 'http://www.web2py.com', [(<lazyT 'Download'>, False, 'http://www.web2py.com/examples/default/download'), (<lazyT 'Support'>, False, 'http://www.web2py.com/examples/default/support'), (<lazyT 'Quick Examples'>, False, 'http://web2py.com/examples/default/examples'), (<lazyT 'FAQ'>, False, 'http://web2py.com/AlterEgo'), (<lazyT 'Free Applications'>, False, 'http://web2py.com/appliances'), (<lazyT 'Plugins'>, False, 'http://web2py.com/plugins'), (<lazyT 'Recipes'>, False, 'http://web2pyslices.com/'), (<lazyT 'Demo'>, False, 'http://web2py.com/demo_admin'), (<lazyT 'Semantic'>, False, 'http://web2py.com/semantic'), (<lazyT 'Layouts'>, False, 'http://web2py.com/layouts'), (<lazyT 'Videos'>, False, 'http://www.web2py.com/examples/default/videos/')])])]"
p251
sS'_view_environment'
p252
S"{'A': <class 'gluon.html.A'>, 'Auth': <class 'gluon.tools.Auth'>, 'B': <class 'gluon.html.B'>, 'BEAUTIFY': <class 'gluon.html.BEAUTIFY'>, 'BODY': <class 'gluon.html.BODY'>, 'BR': <class 'gluon.html.BR'>, 'CENTER': <class 'gluon.html.CENTER'>, 'CLEANUP': <class 'gluon.validators.CLEANUP'>, 'CODE': <class 'gluon.html.CODE'>, 'CRYPT': <class 'gluon.validators.CRYPT'>, ...}"
p253
sS'session_id_name'
p254
S"'session_id_marcado'"
p255
sS'_custom_commit'
p256
S'None'
p257
sS'_caller'
p258
S'<function <lambda>>'
p259
sS'files'
p260
S'[]'
p261
sS'view'
p262
S"'agenda/index.html'"
p263
ssS'locals'
p264
(dp265
S'indent'
p266
S'4'
sS'encoding'
p267
S"'utf-8'"
p268
sS'default'
p269
S'None'
p270
sS'use_decimal'
p271
g81
sS'separators'
p272
S'None'
p273
sS'kw'
p274
S"{'escape': False}"
p275
sS'skipkeys'
p276
g81
sS'allow_nan'
p277
S'True'
p278
sS'obj'
p279
S"{'id': 1, 'start': '2011-01-17', 'title': 'Fulano Silva'}"
p280
sS'ensure_ascii'
p281
g278
sS'check_circular'
p282
g278
sS'cls'
p283
S"<class 'simplejson.encoder.JSONEncoder'>"
p284
sssS'traceback'
p285
S'Traceback (most recent call last):\n  File "/media/DADOS/Projetos/web2py/gluon/restricted.py", line 188, in restricted\n    exec ccode in environment\n  File "/media/DADOS/Projetos/web2py/applications/marcado/controllers/agenda.py", line 49, in <module>\n  File "/media/DADOS/Projetos/web2py/gluon/globals.py", line 95, in <lambda>\n    self._caller = lambda f: f()\n  File "/media/DADOS/Projetos/web2py/applications/marcado/controllers/agenda.py", line 19, in index\n    teste = json.dumps({"id":ag.agenda.id,"title":ag.cliente.nome,"start":ag.agenda.data.strftime(\'%Y-%m-%d\')},indent=4,escape=False)\n  File "/usr/lib/pymodules/python2.6/simplejson/__init__.py", line 268, in dumps\n    use_decimal=use_decimal, **kw).encode(obj)\nTypeError: __init__() got an unexpected keyword argument \'escape\'\n'
p286
s.