(dp1
S'output'
p2
S'missing "pass" in view'
p3
sS'layer'
p4
S'ParserContainer'
p5
sS'code'
p6
S'response.write(\'<!DOCTYPE html>\\n<html lang="\', escape=False)\nresponse.write(T.accepted_language or \'en\')\nresponse.write(\'" class="no-js"><!-- no-js need it for modernzr -->\\n    <head>\\n        <meta charset="utf-8" />        \\n        <meta http-equiv="X-UA-Compatible" content="IE=edge,chrome=1">\\n    \\n        <title>\', escape=False)\nresponse.write(response.title or request.application)\nresponse.write(\'</title>\\n    \\n        <!-- http://dev.w3.org/html5/markup/meta.name.html -->\\n        <meta name="application-name" content="\', escape=False)\nresponse.write(request.application)\nresponse.write(\'" /> \\n    \\n        <!-- Speaking of Google, don\\\'t forget to set your site up: http://google.com/webmasters -->\\n        <meta name="google-site-verification" content="" />\\n    \\n        <!-- Place favicon.ico and apple-touch-icon.png in the root of your domain and delete these references -->\\n        <link rel="shortcut icon" href="\', escape=False)\nresponse.write(URL(\'static\',\'favicon.ico\'))\nresponse.write(\'" type="image/x-icon">\\n    \\n        <!-- All JavaScript at the bottom, except for Modernizr which enables HTML5 elements & feature detects -->\\n        <script src="\', escape=False)\nresponse.write(URL(\'static\',\'js/modernizr-1.6.min.js\'))\nresponse.write(\'"></script>\\n    \\n        <!-- Arquivos CSS e Javascript -->\\n        \', escape=False)\nresponse.files.append(URL(\'static\',\'css/base.css\'))\nresponse.write(\'\\n        \', escape=False)\nresponse.files.append(URL(\'static\',\'css/formularios.css\'))\nresponse.write(\'              \\n        \', escape=False)\nresponse.files.append(URL(\'static\',\'css/superfish.css\'))\nresponse.write(\'\\n        \\n        <!-- Modulo de clientes -->\\n        \', escape=False)\nresponse.files.append(URL(\'static\',\'css/modulos/clientes/clientes.css\'))\nresponse.write(\'\\n        \', escape=False)\nresponse.files.append(URL(\'static\',\'js/modulos/clientes/clientes.js\'))\nresponse.write(\'\\n        \\n        <!-- Modulo de Funcionarios -->\\n        \', escape=False)\nresponse.files.append(URL(\'static\',\'css/modulos/funcionarios/funcionarios.css\'))\nresponse.write(\'\\n        \\n        <!-- Modulo de Servicos -->\\n        \', escape=False)\nresponse.files.append(URL(\'static\',\'css/modulos/servicos/servicos.css\'))\nresponse.write(\'\\n        \\n        \', escape=False)\n#------ include web2py specific js code (jquery, calendar, form stuff) ------\nresponse.write(\'\\n        \', escape=False)\nresponse.files.insert(0,URL(\'static\',\'js/jquery.js\'))\nresponse.files.insert(1,URL(\'static\',\'css/custom-theme/jquery-ui-1.8.7.custom.css\'))\nresponse.files.insert(2,URL(\'static\',\'js/jquery-ui-1.8.7.custom.min.js\'))\nresponse.files.insert(3,URL(\'static\',\'js/jquery.maskedinput-1.1.4.pack.js\'))\nfor _item in response.meta or []:\n    response.write(\'\\n     <meta name="\', escape=False)\n    response.write(_item)\n    response.write(\'" content="\', escape=False)\n    response.write(response.meta[_item])\n    response.write(\'" />\', escape=False)\n    pass\nfor _k,_file in enumerate(response.files or []):\n    if _file in response.files[:_k]:\n        continue\n    _file0=_file.lower().split(\'?\')[0]\n    if _file0.endswith(\'.css\'):\n        response.write(\'\\n     <link href="\', escape=False)\n        response.write(_file)\n        response.write(\'" rel="stylesheet" type="text/css" />\', escape=False)\n    elif _file0.endswith(\'.js\'):\n        response.write(\'\\n     <script src="\', escape=False)\n        response.write(_file)\n        response.write(\'" type="text/javascript"></script>\', escape=False)\n        pass\n    pass\nresponse.write(\'\\n  \\n<script type="text/javascript"><!--\\nfunction popup(url) {\\n  newwindow=window.open(url,\\\'name\\\',\\\'height=400,width=600\\\');\\n  if (window.focus) newwindow.focus();\\n  return false;\\n}\\nfunction collapse(id) { jQuery(\\\'#\\\'+id).slideToggle(); }\\nfunction fade(id,value) { if(value>0) jQuery(\\\'#\\\'+id).hide().fadeIn(\\\'slow\\\'); else jQuery(\\\'#\\\'+id).show().fadeOut(\\\'slow\\\'); }\\nfunction ajax(u,s,t) {\\n    query = \\\'\\\';\\n    if (typeof s == "string") {\\n        d = jQuery(s).serialize();\\n        if(d){ query = d; }\\n    } else {\\n        pcs = [];\\n        for(i=0; i<s.length; i++) {\\n            q = jQuery("[name="+s[i]+"]").serialize();\\n            if(q){pcs.push(q);}\\n        }\\n        if (pcs.length>0){query = pcs.join("&");}\\n    }\\n    jQuery.ajax({type: "POST", url: u, data: query, success: function(msg) { if(t) { if(t==\\\':eval\\\') eval(msg); else jQuery("#" + t).html(msg); } } }); \\n}\\n\\nString.prototype.reverse = function () { return this.split(\\\'\\\').reverse().join(\\\'\\\');};\\nfunction web2py_ajax_init() {\\n  jQuery(\\\'.hidden\\\').hide();\\n  jQuery(\\\'.error\\\').hide().slideDown(\\\'slow\\\');\\n  jQuery(\\\'.flash\\\').click(function() { jQuery(this).fadeOut(\\\'slow\\\'); return false; });\\n  // jQuery(\\\'input[type=submit]\\\').click(function(){var t=jQuery(this);t.hide();t.after(\\\'<input class="submit_disabled" disabled="disabled" type="submit" name="\\\'+t.attr("name")+\\\'_dummy" value="\\\'+t.val()+\\\'">\\\')});\\n  jQuery(\\\'input.integer\\\').keyup(function(){this.value=this.value.reverse().replace(/[^0-9\\\\-]|\\\\-(?=.)/g,\\\'\\\').reverse();});\\n  jQuery(\\\'input.double,input.decimal\\\').keyup(function(){this.value=this.value.reverse().replace(/[^0-9\\\\-\\\\.]|[\\\\-](?=.)|[\\\\.](?=[0-9]*[\\\\.])/g,\\\'\\\').reverse();});\\n  jQuery("input[type=\\\'checkbox\\\'].delete").each(function(){jQuery(this).click(function() { if(this.checked) if(!confirm("\', escape=False)\nresponse.write(T(\'Sure you want to delete this object?\'))\nresponse.write(\'")) this.checked=false; });});\\n  try {\\n      jQuery("input.date").focus( function() {\\n          jQuery("input.date").datepicker({\\n              inline: true,\\n              dateFormat: "dd/mm/yy"\\n          });    \\n      }); \\n      jQuery("input.date").click( function() {\\n          jQuery("input.date").datepicker({\\n              inline: true,\\n              dateFormat: "dd/mm/yy"\\n          });    \\n      });      \\n  } catch(e) {};\\n  try { jQuery("input.datetime").focus( function() {\\n      jQuery("input.datetime").datepicker({\\n          inline: true,\\n          dateFormat: "dd/mm/yy"\\n      })  \\n  }); } catch(e) {};\\n  try { jQuery("input.time").timeEntry(); } catch(e) {};\\n};\\n\\njQuery(document).ready(function() {   \\n   var flash = jQuery(\\\'.flash\\\');\\n   flash.hide();\\n   if(flash.html()) flash.slideDown();\\n   web2py_ajax_init();\\n});\\nfunction web2py_trap_form(action,target) {\\n   jQuery(\\\'#\\\'+target+\\\' form\\\').each(function(i){\\n      var form=jQuery(this);\\n      if(!form.hasClass(\\\'no_trap\\\'))\\n        form.submit(function(obj){\\n         jQuery(\\\'.flash\\\').hide().html(\\\'\\\');\\n         web2py_ajax_page(\\\'post\\\',action,form.serialize(),target);\\n         return false;\\n      });\\n   });\\n}\\nfunction web2py_ajax_page(method,action,data,target) {\\n  jQuery.ajax({\\\'type\\\':method,\\\'url\\\':action,\\\'data\\\':data,\\n    \\\'beforeSend\\\':function(xhr) {\\n      xhr.setRequestHeader(\\\'web2py-component-location\\\',document.location);\\n      xhr.setRequestHeader(\\\'web2py-component-element\\\',target);},\\n    \\\'complete\\\':function(xhr,text){\\n      var html=xhr.responseText;\\n      var content=xhr.getResponseHeader(\\\'web2py-component-content\\\'); \\n      var command=xhr.getResponseHeader(\\\'web2py-component-command\\\');\\n      var flash=xhr.getResponseHeader(\\\'web2py-component-flash\\\');\\n      var t = jQuery(\\\'#\\\'+target);\\n      if(content==\\\'prepend\\\') t.prepend(html); \\n      else if(content==\\\'append\\\') t.append(html);\\n      else if(content!=\\\'hide\\\') t.html(html);  \\n      web2py_trap_form(action,target);\\n      web2py_ajax_init();      \\n      if(command) eval(command);\\n      if(flash) jQuery(\\\'.flash\\\').html(flash).slideDown();\\n      }\\n    });\\n}\\nfunction web2py_component(action,target) {\\n    jQuery(document).ready(function(){ web2py_ajax_page(\\\'get\\\',action,null,target); });\\n}\\n//--></script>\\n\', escape=False)\nresponse.write(\'\\n       \\n    </head>\\n\\n    <!-- paulirish.com/2008/conditional-stylesheets-vs-css-hacks-answer-neither/ -->  \\n    <!--[if lt IE 7 ]> <body class="ie6"> <![endif]-->\\n    <!--[if IE 7 ]>    <body class="ie7"> <![endif]-->\\n    <!--[if IE 8 ]>    <body class="ie8"> <![endif]-->\\n    <!--[if IE 9 ]>    <body class="ie9"> <![endif]-->\\n    <!--[if (gt IE 9)|!(IE)]><!--><body><!--<![endif]-->\\n    <div id="headBlock">\\n        <div class="headWrap">\\n            <div class="headTitle">\\n                <a href="#">Marcado!</a>\\n\\n            </div>\\n            <div class="headMenus">\\n                <ul class="mainNav">\\n                    <li class="usuario">\\n                        \', escape=False)\nif session.auth:\n    response.write(\'\\n                          <b>Usu\\xc3\\xa1rio:</b> \\n                          <a href="\', escape=False)\n    response.write(URL(request.application, \'default\', \'user\', args = \'profile\'))\n    response.write(\'">\\n                            \', escape=False)\n    response.write(session.auth.user.username)\n    response.write(\'\\n                          </a> | \\n                          <a href="\', escape=False)\n    Alterar Senha</a>\n    response.write(\'{{ pass }}\', escape=False)\n    </li>\n    </ul>\n    response.write("{{include \'menu.html\'}}", escape=False)\n    </div>\n    </div>\n    <div class="headFooter"></div>\n    </div>\n    <div id="wrapper">\n    <div id="mainArea">\n    response.write(\'{{ if response.flash: }}\', escape=False)\n    <div class="ui-widget" style="margin-top: 20px; padding: 0 .7em;">\n    <div class="ui-state-highlight ui-corner-all">\n    <p>\n    <span class="ui-icon ui-icon-info" style="float: left; margin-right: .3em;"></span>\n    response.write("{{=response.flash or \'\'}}", escape=False)\n    </p>\n    </div>\n    </div> <!-- notification div -->\n    response.write(\'{{pass}}\', escape=False)\n    response.write(\'\\n\', escape=False)\n    if funcionarios:\n        response.write(\'\\n    <h2>Lista de Funcion\\xc3\\xa1rios Cadastrados</h2>\\n    \', escape=False)\n        response.write(table)\n        response.write(\'\\n\', escape=False)\n    else:\n        response.write(\'\\n    <center>\\n        <h3>\', escape=False)\n        response.write(mensagem)\n        response.write(\'</h3>\\n    </center>\\n\', escape=False)\n        pass\n    response.write(\'\\n<br />\\n<div class="navegacao">\\n    <center><a href="\', escape=False)\n    response.write(URL(request.application, \'funcionarios\',\'novo\'))\n    response.write(\'">Novo Funcion\\xc3\\xa1rio</a></center>\\n</div>\\n\', escape=False)\n    response.write(\' \\n        </div>\\n    </div>      \\n    \\n    <div class="pageFooter">\\n        <div class="footerContents">\\n            Powered by \\n            <a href="http://web2py.com"><img src="\', escape=False)\n    response.write(URL(\'static\',\'images/poweredby.png\'))\n    response.write(\'" alt="web2py"/></a><br />\\n        </div>\\n    </div>   \\n  </body>\\n</html>\\n\', escape=False)'
p7
sS'snapshot'
p8
(dp9
S'exception'
p10
(dp11
S'__module__'
p12
S"'gluon.rocket'"
p13
sS'__getslice__'
p14
S"<method-wrapper '__getslice__' of SocketTimeout object>"
p15
sS'__str__'
p16
S"<method-wrapper '__str__' of SocketTimeout object>"
p17
sS'__reduce__'
p18
S'<built-in method __reduce__ of SocketTimeout object>'
p19
sS'__dict__'
p20
S'{}'
p21
sS'__sizeof__'
p22
S'<built-in method __sizeof__ of SocketTimeout object>'
p23
sS'__weakref__'
p24
S'None'
p25
sS'__init__'
p26
S"<method-wrapper '__init__' of SocketTimeout object>"
p27
sS'__setattr__'
p28
S"<method-wrapper '__setattr__' of SocketTimeout object>"
p29
sS'__reduce_ex__'
p30
S'<built-in method __reduce_ex__ of SocketTimeout object>'
p31
sS'__new__'
p32
S'<built-in method __new__ of type object>'
p33
sS'__format__'
p34
S'<built-in method __format__ of SocketTimeout object>'
p35
sS'__class__'
p36
S"<class 'gluon.rocket.SocketTimeout'>"
p37
sS'__doc__'
p38
S"'Exception for when a socket times out between requests.'"
p39
sS'__getitem__'
p40
S"<method-wrapper '__getitem__' of SocketTimeout object>"
p41
sS'__setstate__'
p42
S'<built-in method __setstate__ of SocketTimeout object>'
p43
sS'__getattribute__'
p44
S"<method-wrapper '__getattribute__' of SocketTimeout object>"
p45
sS'args'
p46
S"('Socket timed out before request.',)"
p47
sS'__subclasshook__'
p48
S'<built-in method __subclasshook__ of type object>'
p49
sS'__unicode__'
p50
S'<built-in method __unicode__ of SocketTimeout object>'
p51
sS'__delattr__'
p52
S"<method-wrapper '__delattr__' of SocketTimeout object>"
p53
sS'__repr__'
p54
S"<method-wrapper '__repr__' of SocketTimeout object>"
p55
sS'__hash__'
p56
S"<method-wrapper '__hash__' of SocketTimeout object>"
p57
ssS'evalue'
p58
S'Socket timed out before request.'
p59
sS'frames'
p60
(lp61
(dp62
S'file'
p63
S'/opt/web2py/gluon/rocket.py'
p64
sS'dump'
p65
(dp66
S'self'
p67
S'<WSGIWorker(Thread-7, started daemon 140315725895424)>'
p68
sS'conn'
p69
S'<gluon.rocket.Connection object>'
p70
sS'self.run_app'
p71
S'<bound method WSGIWorker.run_app of <WSGIWorker(Thread-7, started daemon 140315725895424)>>'
p72
ssS'lnum'
p73
I1064
sS'lines'
p74
(dp75
I1059
S'            # Enter connection serve loop'
p76
sI1060
S'            while True:'
p77
sI1061
S'                if __debug__:'
p78
sI1062
S"                    self.err_log.debug('Serving a request')"
p79
sI1063
S'                try:'
p80
sI1064
S'                    self.run_app(conn)'
p81
sI1065
S'                    log_info = dict(client_ip = conn.client_addr,'
p82
sI1066
S"                                    time = datetime.now().strftime('%c'),"
p83
sI1067
S"                                    status = self.status.split(' ')[0],"
p84
sI1068
S'                                    size = self.size,'
p85
ssS'call'
p86
S'(self=<WSGIWorker(Thread-7, started daemon 140315725895424)>)'
p87
sS'func'
p88
S'run'
p89
sa(dp90
g63
S'/opt/web2py/gluon/rocket.py'
p91
sg65
(dp92
S'self'
p93
S'<WSGIWorker(Thread-7, started daemon 140315725895424)>'
p94
sS'self.environ'
p95
S"{'HTTP_ACCEPT': 'text/html,application/xhtml+xml,application/xml;q=0.9,*/*;q=0.8', 'HTTP_ACCEPT_CHARSET': 'ISO-8859-1,utf-8;q=0.7,*;q=0.7', 'HTTP_ACCEPT_ENCODING': 'gzip,deflate', 'HTTP_ACCEPT_LANGUAGE': 'pt-br,pt;q=0.8,en-us;q=0.5,en;q=0.3', 'HTTP_CACHE_CONTROL': 'max-age=0', 'HTTP_CONNECTION': 'keep-alive', 'HTTP_COOKIE': 'session_id_marcado=127.0.0.1-a7697b8b-0000-4cd0-...in=127.0.0.1-0b66ea15-e0b4-4b64-8a31-0d18037f0663', 'HTTP_HOST': '127.0.0.1:8000', 'HTTP_KEEP_ALIVE': '115', 'HTTP_REFERER': 'http://127.0.0.1:8000/marcado/servicos/index', ...}"
p96
sS'sock_file'
p97
S'<socket._fileobject object>'
p98
sS'environ'
p99
S'undefined'
p100
sS'self.build_environ'
p101
S'<bound method WSGIWorker.build_environ of <WSGIWorker(Thread-7, started daemon 140315725895424)>>'
p102
sS'conn'
p103
S'<gluon.rocket.Connection object>'
p104
ssg73
I1529
sg74
(dp105
I1524
S'        # Build our file-like object'
p106
sI1525
S"        sock_file = conn.makefile('rb',BUF_SIZE)"
p107
sI1526
S''
sI1527
S'        try:'
p108
sI1528
S'            # Read the headers and build our WSGI environment'
p109
sI1529
S'            self.environ = environ = self.build_environ(sock_file, conn)'
p110
sI1530
S''
sI1531
S'            # Handle 100 Continue'
p111
sI1532
S"            if environ.get('HTTP_EXPECT', '') == '100-continue':"
p112
sI1533
S"                res = environ['SERVER_PROTOCOL'] + ' 100 Continue\\r\\n\\r\\n'"
p113
ssg86
S'(self=<WSGIWorker(Thread-7, started daemon 140315725895424)>, conn=<gluon.rocket.Connection object>)'
p114
sg88
S'run_app'
p115
sa(dp116
g63
S'/opt/web2py/gluon/rocket.py'
p117
sg65
(dp118
S'sock_file'
p119
S'<socket._fileobject object>'
p120
sS'self.read_request_line'
p121
S'<bound method WSGIWorker.read_request_line of <W...orker(Thread-7, started daemon 140315725895424)>>'
p122
sS'self'
p123
S'<WSGIWorker(Thread-7, started daemon 140315725895424)>'
p124
sS'request'
p125
g100
ssg73
I1361
sg74
(dp126
I1356
S''
sI1357
S''
sI1358
S'    def build_environ(self, sock_file, conn):'
p127
sI1359
S'        """ Build the execution environment. """'
p128
sI1360
S'        # Grab the request line'
p129
sI1361
S'        request = self.read_request_line(sock_file)'
p130
sI1362
S''
sI1363
S'        # Copy the Base Environment'
p131
sI1364
S'        environ = self.base_environ.copy()'
p132
sI1365
S''
ssg86
S'(self=<WSGIWorker(Thread-7, started daemon 140315725895424)>, sock_file=<socket._fileobject object>, conn=<gluon.rocket.Connection object>)'
p133
sg88
S'build_environ'
p134
sa(dp135
g63
S'/opt/web2py/gluon/rocket.py'
p136
sg65
(dp137
S'global SocketTimeout'
p138
S"<class 'gluon.rocket.SocketTimeout'>"
p139
ssg73
I1138
sg74
(dp140
I1133
S''
sI1134
S'                d = sock_file.readline()'
p141
sI1135
S'                if PY3K:'
p142
sI1136
S"                    d = d.decode('ISO-8859-1')"
p143
sI1137
S'        except socket.timeout:'
p144
sI1138
S'            raise SocketTimeout("Socket timed out before request.")'
p145
sI1139
S''
sI1140
S'        d = d.strip()'
p146
sI1141
S''
sI1142
S'        if not d:'
p147
ssg86
S'(self=<WSGIWorker(Thread-7, started daemon 140315725895424)>, sock_file=<socket._fileobject object>)'
p148
sg88
S'read_request_line'
p149
sasS'pyver'
p150
S'Python 2.6.6: /usr/bin/python'
p151
sS'etype'
p152
S"<class 'gluon.rocket.SocketTimeout'>"
p153
sS'date'
p154
S'Fri Jan 14 23:38:40 2011'
p155
sS'locals'
p156
(dp157
S'sock_file'
p158
S'<socket._fileobject object>'
p159
sS'self'
p160
S'<WSGIWorker(Thread-7, started daemon 140315725895424)>'
p161
sssS'traceback'
p162
S'Traceback (most recent call last):\n  File "/opt/web2py/gluon/rocket.py", line 1064, in run\n    self.run_app(conn)\n  File "/opt/web2py/gluon/rocket.py", line 1529, in run_app\n    self.environ = environ = self.build_environ(sock_file, conn)\n  File "/opt/web2py/gluon/rocket.py", line 1361, in build_environ\n    request = self.read_request_line(sock_file)\n  File "/opt/web2py/gluon/rocket.py", line 1138, in read_request_line\n    raise SocketTimeout("Socket timed out before request.")\nSocketTimeout: Socket timed out before request.\n'
p163
s.