(dp1
S'output'
p2
S''
sS'layer'
p3
S'/opt/web2py/applications/marcado/controllers/clientes.py'
p4
sS'code'
p5
S'# coding: utf8\n\n@auth.requires_login()\ndef index():\n    """\n        Lista todos os clientes cadastrados\n    """\n    \n    class Virtual(object):\n        @virtualsettings(label=\'Dados do Contato\')\n        def virtualtooltip(self):\n            text = \'\'\'\n            Nome do Cliente: %s \\n\n            Telefone para Contato: %s\n            \'\'\'\n            return (text % self.cliente.nome,self.cliente.telefone)\n           \n    \n    # Consultando todos os clientes\n    query = db.cliente.id > 0 or db.cliente.aniversario <= request.now\n    clientes = db(query).select(orderby=db.cliente.nome)\n    \n    #Preparando a tabela    \n    table = plugins.powerTable\n    table.datasource = db.cliente\n    table.uitheme = \'le-flog\'\n    table.dtfeatures[\'sPaginationType\'] = \'scrolling\'\n    table.keycolumn = \'cliente.id\'  \n    table.columns = [\'cliente.nome\',\'cliente.endereco\',\'cliente.telefone\']\n    table.headers = \'labels\'\n    table.showkeycolumn = False\n    table.dtfeatures[\'bJQueryUI\'] = request.vars.get(\'jqueryui\',True)\n    table.columnsearch = True\n    table.extrajs = dict(details={\'detailscolumns\':\'cliente.nome,cliente.endereco,cliente.telefone,cliente.email,cliente.aniversario\'},\n                       tooltip={\'type\':\'virtual\'}\n                       )    \n    table.virtualfields = Virtual()\n    \n    # Caso nao tiver nenhum registro mostrar mensagem\n    if clientes:\n        # Retornando os registros\n        return dict(clientes=clientes, table = table.create())        \n    else:\n        return dict(clientes = clientes, mensagem = T(\'sem_registros\'))\n\n@auth.requires_login()\ndef novo():\n    """\n        Exibe o formulario de cadastro dos clientes\n    """\n    return dict(form = crud.create(db.cliente))\n\n\n@auth.requires_login()\ndef editar():\n    """\n        Exibe o formulario de edicao com os dados\n        do cliente selecionado\n    """\n    #recupera o primeiro argumento, ou redireciona\n    id = request.args(0) or redirect(URL(\'index\'))\n    \n    return dict(form = crud.update(db.cliente, id))\n\n@auth.requires_login()\ndef detalhes():    \n    """\n        Exibe os detalhes do cliente selecionado\n    """\n    #recupera o primeiro argumento, ou redireciona\n    id = request.args(0) or redirect(URL(\'index\'))\n\n    # Consulta o cliente selecionado\n    query = db.cliente.id == int(id)\n    \n    return dict(cliente = db(query).select().first())\n\n@auth.requires_login()\ndef pesquisa():\n    """\n        Efetua a pesquisa dos clientes\n        a partir do seu nome\n    """\n    # Captura o valor do campo de pesquisa\n    palavra_chave = request.vars.nome\n\n    # Verifica se o campo esta vazio\n    if palavra_chave:\n        # Consulta os resultados da pesquisa\n        query = db.cliente.nome.like(\'%\'+palavra_chave+\'%\')\n        resultado = db(query or db.cliente.aniversario <= request.now).select()\n    \n        # Define qual view sera renderizada\n        response.view = \'clientes/index.html\'\n    \n        # Se encontrou alguma coisa, exibe o resultado\n        # da pesquisa, senao enviar mensagem que nao\n        # foi encontrado nada.\n        if resultado:\n            return dict(clientes = resultado)\n        else:\n            msg = T(\'nao_encontrado\')\n            return dict(clientes = resultado, mensagem = msg)\n    else:\n        # Define a view que sera renderizada\n        response.view = \'clientes/index.html\'\n    \n        # consulta todos os clientes\n        query = db.cliente.id > 0 and db.cliente.aniversario <= request.now\n        \n        # verifica se trouxe registros\n        clientes = db(query).select()\n        if clientes:\n            return dict(clientes = clientes)\n        else:\n            return dict(clientes = clientes, mensagem = T(\'sem_registros\')) \n        \n@auth.requires_login()\ndef excluir():\n    """\n        Exclui o cliente selecionado\n    """\n    #recupera o primeiro argumento, ou redireciona\n    id = request.args(0) or redirect(URL(\'index\'))\n    \n    # exclui o registro\n    cliente = db(db.cliente.id == int(id)).delete()\n\n    # Define a view que vai ser renderizada\n    response.view = \'clientes/index.html\'\n    \n    if cliente:\n        # Mostra mensagem de sucesso e redireciona para a lista de clientes\n        redirect(URL(request.application, \'clientes\',\'index\'))\n        response.flash = T(\'excluido\')\n    else:\n        redirect(URL(request.application, \'clientes\',\'index\'))\n        response.flash = T(\'excluido\')\n\nresponse._vars=response._caller(index)\n'
p6
sS'snapshot'
p7
(dp8
S'exception'
p9
(dp10
S'__hash__'
p11
S"<method-wrapper '__hash__' of exceptions.TypeError object>"
p12
sS'__setattr__'
p13
S"<method-wrapper '__setattr__' of exceptions.TypeError object>"
p14
sS'__reduce_ex__'
p15
S'<built-in method __reduce_ex__ of exceptions.TypeError object>'
p16
sS'__getslice__'
p17
S"<method-wrapper '__getslice__' of exceptions.TypeError object>"
p18
sS'__getitem__'
p19
S"<method-wrapper '__getitem__' of exceptions.TypeError object>"
p20
sS'__setstate__'
p21
S'<built-in method __setstate__ of exceptions.TypeError object>'
p22
sS'args'
p23
S"('not enough arguments for format string',)"
p24
sS'__reduce__'
p25
S'<built-in method __reduce__ of exceptions.TypeError object>'
p26
sS'__str__'
p27
S"<method-wrapper '__str__' of exceptions.TypeError object>"
p28
sS'__format__'
p29
S'<built-in method __format__ of exceptions.TypeError object>'
p30
sS'__getattribute__'
p31
S"<method-wrapper '__getattribute__' of exceptions.TypeError object>"
p32
sS'__class__'
p33
S"<type 'exceptions.TypeError'>"
p34
sS'__unicode__'
p35
S'<built-in method __unicode__ of exceptions.TypeError object>'
p36
sS'__delattr__'
p37
S"<method-wrapper '__delattr__' of exceptions.TypeError object>"
p38
sS'__subclasshook__'
p39
S'<built-in method __subclasshook__ of type object>'
p40
sS'__repr__'
p41
S"<method-wrapper '__repr__' of exceptions.TypeError object>"
p42
sS'__dict__'
p43
S'{}'
p44
sS'__sizeof__'
p45
S'<built-in method __sizeof__ of exceptions.TypeError object>'
p46
sS'__doc__'
p47
S"'Inappropriate argument type.'"
p48
sS'__init__'
p49
S"<method-wrapper '__init__' of exceptions.TypeError object>"
p50
sS'__new__'
p51
S'<built-in method __new__ of type object>'
p52
ssS'evalue'
p53
S'not enough arguments for format string'
p54
sS'request'
p55
(dp56
S'function'
p57
S"'index'"
p58
sS'body'
p59
S'<cStringIO.StringO object>'
p60
sS'wsgi'
p61
S"<Storage {'start_response': <function <lambda> a...>, 'HTTP_ACCEPT_ENCODING': 'gzip,deflate,sdch'}}>"
p62
sS'extension'
p63
S"'html'"
p64
sS'vars'
p65
S'<Storage {}>'
p66
sS'cid'
p67
S'None'
p68
sS'url'
p69
S'<gluon.html.XML object>'
p70
sS'raw_extension'
p71
S'None'
p72
sg23
S'[]'
p73
sS'controller'
p74
S"'clientes'"
p75
sS'cookies'
p76
S"<SimpleCookie: session_id_admin='127.0.0.1-c4c54...'127.0.0.1-122a9335-d972-430e-8cc5-7d477b8b920c'>"
p77
sS'application'
p78
S"'marcado'"
p79
sS'ajax'
p80
S'False'
p81
sS'client'
p82
S"'127.0.0.1'"
p83
sS'env'
p84
S"<Storage {'wsgi_multithread': True, 'http_accept... 'wsgi_run_once': False, 'remote_port': '50111'}>"
p85
sS'raw_args'
p86
S'None'
p87
sS'get_vars'
p88
S'<Storage {}>'
p89
sS'folder'
p90
S"'/opt/web2py/applications/marcado/'"
p91
sS'now'
p92
S'datetime.datetime(2011, 1, 12, 22, 14, 43, 900624)'
p93
sS'post_vars'
p94
S'<Storage {}>'
p95
ssS'frames'
p96
(lp97
(dp98
S'file'
p99
S'/opt/web2py/gluon/restricted.py'
p100
sS'dump'
p101
(dp102
S'environment'
p103
S"{'A': <class 'gluon.html.A'>, 'Auth': <class 'gluon.tools.Auth'>, 'B': <class 'gluon.html.B'>, 'BEAUTIFY': <class 'gluon.html.BEAUTIFY'>, 'BODY': <class 'gluon.html.BODY'>, 'BR': <class 'gluon.html.BR'>, 'CENTER': <class 'gluon.html.CENTER'>, 'CLEANUP': <class 'gluon.validators.CLEANUP'>, 'CODE': <class 'gluon.html.CODE'>, 'CRYPT': <class 'gluon.validators.CRYPT'>, ...}"
p104
sS'ccode'
p105
S'<code object <module> at 0x276d738, file "/opt/w...cations/marcado/controllers/clientes.py", line 3>'
p106
ssS'lnum'
p107
I188
sS'lines'
p108
(dp109
I192
S'        # XXX Show exception in Wing IDE if running in debugger'
p110
sI183
S'        if type(code) == types.CodeType:'
p111
sI184
S'            ccode = code'
p112
sI185
S'        else:'
p113
sI186
S'            ccode = compile2(code,layer)'
p114
sI187
S''
sI188
S'        exec ccode in environment'
p115
sI189
S'    except HTTP:'
p116
sI190
S'        raise'
p117
sI191
S'    except Exception:'
p118
ssS'call'
p119
S'(code="# coding: utf8\\n\\n@auth.requires_login()\\ndef index...cluido\')\\n\\nresponse._vars=response._caller(index)\\n", environment={\'A\': <class \'gluon.html.A\'>, \'Auth\': <class \'gluon.tools.Auth\'>, \'B\': <class \'gluon.html.B\'>, \'BEAUTIFY\': <class \'gluon.html.BEAUTIFY\'>, \'BODY\': <class \'gluon.html.BODY\'>, \'BR\': <class \'gluon.html.BR\'>, \'CENTER\': <class \'gluon.html.CENTER\'>, \'CLEANUP\': <class \'gluon.validators.CLEANUP\'>, \'CODE\': <class \'gluon.html.CODE\'>, \'CRYPT\': <class \'gluon.validators.CRYPT\'>, ...}, layer=\'/opt/web2py/applications/marcado/controllers/clientes.py\')'
p120
sS'func'
p121
S'restricted'
p122
sa(dp123
g99
S'/opt/web2py/applications/marcado/controllers/clientes.py'
p124
sg101
(dp125
sg107
I140
sg108
(dp126
I129
S'    # Define a view que vai ser renderizada'
p127
sI130
S"    response.view = 'clientes/index.html'"
p128
sI131
S''
sI132
S'    if cliente:'
p129
sI133
S'        # Mostra mensagem de sucesso e redireciona para a lista de clientes'
p130
sI134
S"        redirect(URL(request.application, 'clientes','index'))"
p131
sI135
S"        response.flash = T('excluido')"
p132
sI136
S'    else:'
p133
sI137
S"        redirect(URL(request.application, 'clientes','index'))"
p134
sI138
S"        response.flash = T('excluido')"
p135
ssg119
S'()'
p136
sg121
S'<module>'
p137
sa(dp138
g99
S'/opt/web2py/gluon/globals.py'
p139
sg101
(dp140
S'self'
p141
S'undefined'
p142
sS'f'
S'<function index>'
p143
ssg107
I95
sg108
(dp144
I96
S'        self._view_environment = None'
p145
sI97
S'        self._custom_commit = None'
p146
sI98
S'        self._custom_rollback = None'
p147
sI99
S''
sI90
S"        self.flash = ''           # used by the default view layout"
p148
sI91
S'        self.meta = Storage()     # used by web2py_ajax.html'
p149
sI92
S'        self.menu = []            # used by the default view layout'
p150
sI93
S'        self.files = []           # used by web2py_ajax.html'
p151
sI94
S'        self._vars = None'
p152
sI95
S'        self._caller = lambda f: f()'
p153
ssg119
S'(f=<function index>)'
p154
sg121
S'<lambda>'
p155
sa(dp156
g99
S'/opt/web2py/gluon/tools.py'
p157
sg101
(dp158
S'action'
p159
S'<function index>'
p160
sS'a'
S'()'
p161
sS'b'
g44
ssg107
I2297
sg108
(dp162
I2292
S'                    self.environment.session.flash = self.environment.response.flash'
p163
sI2293
S'                    return call_or_redirect(self.settings.on_failed_authentication,'
p164
sI2294
S'                                            self.settings.login_url + \\'
p165
sI2295
S"                                                '?_next='+urllib.quote(next)"
p166
sI2296
S'                                            )'
p167
sI2297
S'                return action(*a, **b)'
p168
sI2298
S'            f.__doc__ = action.__doc__'
p169
sI2299
S'            f.__name__ = action.__name__'
p170
sI2300
S'            f.__dict__.update(action.__dict__)'
p171
sI2301
S'            return f'
p172
ssg119
S'(*a=(), **b={})'
p173
sg121
S'f'
sa(dp174
g99
S'/opt/web2py/applications/marcado/controllers/clientes.py'
p175
sg101
(dp176
S'table'
p177
S"<Storage {'virtualfields': <Virtual object at 0x....nome', 'cliente.endereco', 'cliente.telefone']}>"
p178
sS'table.create'
p179
S'<function plugin_powertable>'
p180
sS'clientes'
p181
S'<gluon.dal.Rows object>'
p182
sS'builtindict'
p183
S"<type 'dict'>"
p184
ssg107
I42
sg108
(dp185
I37
S'    table.virtualfields = Virtual()'
p186
sI38
S''
sI39
S'    # Caso nao tiver nenhum registro mostrar mensagem'
p187
sI40
S'    if clientes:'
p188
sI41
S'        # Retornando os registros'
p189
sI42
S'        return dict(clientes=clientes, table = table.create())'
p190
sI43
S'    else:'
p191
sI44
S"        return dict(clientes = clientes, mensagem = T('sem_registros'))"
p192
sI45
S''
sI46
S'@auth.requires_login()'
p193
ssg119
S'()'
p194
sg121
S'index'
p195
sa(dp196
g99
S'/opt/web2py/applications/marcado/models/plugin_powertable.py'
p197
sg101
(dp198
S'global PowerTable'
p199
S"<class 'PowerTable'>"
p200
ssg107
I704
sg108
(dp201
I704
S'                    PowerTable(),'
p202
sI705
S'                    )'
p203
sI706
S''
sI707
S''
sI708
S'plugins.powerTable.create = plugin_powertable'
p204
sI699
S'                                        rowclick=str(rowclick),'
p205
sI700
S'                                        autoresize=str(autoresize)'
p206
sI701
S'                                        )'
p207
sI702
S'                        ),'
p208
sI703
S'                    CSS,'
p209
ssg119
S'()'
p210
sg121
S'plugin_powertable'
p211
sa(dp212
g99
S'/opt/web2py/applications/marcado/models/plugin_powertable.py'
p213
sg101
(dp214
S'sqlrows.setvirtualfields'
p215
S'<bound method Rows.setvirtualfields of <gluon.dal.Rows object>>'
p216
sS'virtualfields'
p217
S'<Virtual object>'
p218
sS'sqlrows'
p219
S'<gluon.dal.Rows object>'
p220
sS'virtual'
p221
g142
ssg107
I145
sg108
(dp222
I140
S"                        virtuallabels['virtual.%s' % vf] = getattr(virtualfields,vf).label"
p223
sI141
S'                    except AttributeError:'
p224
sI142
S'                        pass'
p225
sI143
S''
sI144
S'            #appending virtual fields to the rows'
p226
sI145
S'            sqlrows.setvirtualfields(virtual=virtualfields)'
p227
sI146
S''
sI147
S'        #keycolumn is required, if not set, it will be the first column'
p228
sI148
S'        if not keycolumn: keycolumn = sqlrows.colnames[0]'
p229
sI149
S"        keycolumntbl = keycolumn.split('.')[0]"
p230
ssg119
S'(self=<PowerTable object>)'
p231
sg121
g49
sa(dp232
g99
S'/opt/web2py/gluon/dal.py'
p233
sg101
(dp234
S'box'
p235
S'<Row {}>'
p236
sS'attribute'
p237
S"'virtualtooltip'"
p238
sS'method'
p239
S'<bound method Virtual.virtualtooltip of <Virtual object>>'
p240
ssg107
I4600
sg108
(dp241
I4595
S'                    box = row[tablename]'
p242
sI4596
S'                for attribute in attributes:'
p243
sI4597
S"                    if attribute[0] != '_':"
p244
sI4598
S'                        method = getattr(virtualfields,attribute)'
p245
sI4599
S"                        if hasattr(method,'im_func') and method.im_func.func_code.co_argcount:"
p246
sI4600
S'                            box[attribute]=method()'
p247
sI4601
S'        return self'
p248
sI4602
S''
sI4603
S'    def __and__(self,other):'
p249
sI4604
S"        if self.colnames!=other.colnames: raise Exception, 'Cannot & incompatible Rows objects'"
p250
ssg119
S"(self=<gluon.dal.Rows object>, **keyed_virtualfields={'virtual': <Virtual object>})"
p251
sg121
S'setvirtualfields'
p252
sa(dp253
g99
S'/opt/web2py/applications/marcado/controllers/clientes.py'
p254
sg101
(dp255
S'text'
p256
S"'\\n            Nome do Cliente: %s \\n\\n            Telefone para Contato: %s\\n            '"
p257
sS'self'
p258
S'<Virtual object>'
p259
sS'self.cliente'
p260
S"<Row {'nome': 'Fulano Silva Carlos Barros dos Sa...elete_record': <function <lambda> at 0x22ea758>}>"
p261
sS'self.cliente.nome'
p262
S"'Fulano Silva Carlos Barros dos Santos Costa'"
p263
sS'self.cliente.telefone'
p264
S"'(61) 8646-8463'"
p265
ssg107
I16
sg108
(dp266
I11
S'        def virtualtooltip(self):'
p267
sI12
S"            text = '''"
p268
sI13
S'            Nome do Cliente: %s \\n'
p269
sI14
S'            Telefone para Contato: %s'
p270
sI15
S"            '''"
p271
sI16
S'            return (text % self.cliente.nome,self.cliente.telefone)'
p272
sI17
S''
sI18
S''
sI19
S'    # Consultando todos os clientes'
p273
sI20
S'    query = db.cliente.id > 0 or db.cliente.aniversario <= request.now'
p274
ssg119
S'(self=<Virtual object>)'
p275
sg121
S'virtualtooltip'
p276
sasS'pyver'
p277
S'Python 2.6.6: /usr/bin/python'
p278
sS'session'
p279
(dp280
S'_formkey[cliente/None]'
p281
S"'cc58d049-116a-40db-a725-f55170777666'"
p282
sS'flash'
p283
S'None'
p284
sS'auth'
p285
S"<Storage {'expiration': 3600, 'user': <Storage {..., 1, 12, 22, 14, 43, 900624), 'remember': False}>"
p286
sS'_formkey[login]'
p287
S"'ca579910-3223-4b3e-b699-f0736fb67aa5'"
p288
ssS'etype'
p289
S"<type 'exceptions.TypeError'>"
p290
sS'date'
p291
S'Wed Jan 12 22:14:43 2011'
p292
sS'response'
p293
(dp294
S'status'
p295
S'200'
p296
sg59
S'<cStringIO.StringO object>'
p297
sg76
S"<SimpleCookie: session_id_marcado='127.0.0.1-8cf1bc21-50e6-47c7-8e02-aa5de3aab032'>"
p298
sS'_vars'
p299
S'None'
p300
sS'title'
p301
S"'Marcado!'"
p302
sS'session_file'
p303
S"<open file '/opt/web2py/applications/marcado/ses...cf1bc21-50e6-47c7-8e02-aa5de3aab032', mode 'rb+'>"
p304
sS'flash'
p305
S"''"
p306
sS'_custom_rollback'
p307
S'None'
p308
sS'session_id'
p309
S"'127.0.0.1-8cf1bc21-50e6-47c7-8e02-aa5de3aab032'"
p310
sS'headers'
p311
S"<Storage {'Expires': 'Thu, 13 Jan 2011 00:14:43 ...he, must-revalidate, post-check=0, pre-check=0'}>"
p312
sS'meta'
p313
S"<Storage {'keywords': 'web2py, python, framework...Enterprise Framework', 'author': 'Gilson Filho'}>"
p314
sS'session_filename'
p315
S"'/opt/web2py/applications/marcado/sessions/127.0.0.1-8cf1bc21-50e6-47c7-8e02-aa5de3aab032'"
p316
sS'postprocessing'
p317
S'[]'
p318
sS'menu'
p319
S"[(<lazyT 'Home'>, False, <gluon.html.XML object>, []), (<lazyT 'This App'>, False, <gluon.html.XML object>, [(<lazyT 'Controller'>, False, <gluon.html.XML object>), (<lazyT 'View'>, False, <gluon.html.XML object>), (<lazyT 'Layout'>, False, <gluon.html.XML object>), (<lazyT 'Stylesheet'>, False, <gluon.html.XML object>), (<lazyT 'DB Model'>, False, <gluon.html.XML object>), (<lazyT 'Menu Model'>, False, <gluon.html.XML object>), (<lazyT 'Database'>, False, <gluon.html.XML object>), (<lazyT 'Errors'>, False, <gluon.html.XML object>), (<lazyT 'About'>, False, <gluon.html.XML object>)]), (<lazyT 'Resources'>, False, None, [(<lazyT 'Documentation'>, False, 'http://www.web2py.com/book', [(<lazyT 'Preface'>, False, 'http://www.web2py.com/book/default/chapter/00'), (<lazyT 'Introduction'>, False, 'http://www.web2py.com/book/default/chapter/01'), (<lazyT 'Python'>, False, 'http://www.web2py.com/book/default/chapter/02'), (<lazyT 'Overview'>, False, 'http://www.web2py.com/book/default/chapter/03'), (<lazyT 'The Core'>, False, 'http://www.web2py.com/book/default/chapter/04'), (<lazyT 'The Views'>, False, 'http://www.web2py.com/book/default/chapter/05'), (<lazyT 'Database'>, False, 'http://www.web2py.com/book/default/chapter/06'), (<lazyT 'Forms and Validators'>, False, 'http://www.web2py.com/book/default/chapter/07'), (<lazyT 'Access Control'>, False, 'http://www.web2py.com/book/default/chapter/08'), (<lazyT 'Services'>, False, 'http://www.web2py.com/book/default/chapter/09'), (<lazyT 'Ajax Recipes'>, False, 'http://www.web2py.com/book/default/chapter/10'), (<lazyT 'Deployment Recipes'>, False, 'http://www.web2py.com/book/default/chapter/11'), (<lazyT 'Other Recipes'>, False, 'http://www.web2py.com/book/default/chapter/12'), (<lazyT 'Buy this book'>, False, 'http://stores.lulu.com/web2py')]), (<lazyT 'Community'>, False, None, [(<lazyT 'Groups'>, False, 'http://www.web2py.com/examples/default/usergroups'), (<lazyT 'Twitter'>, False, 'http://twitter.com/web2py'), (<lazyT 'Live chat'>, False, 'http://mibbit.com/?channel=%23web2py&server=irc.mibbit.net'), (<lazyT 'User Voice'>, False, 'http://web2py.uservoice.com/')]), (<lazyT 'Web2py'>, False, 'http://www.web2py.com', [(<lazyT 'Download'>, False, 'http://www.web2py.com/examples/default/download'), (<lazyT 'Support'>, False, 'http://www.web2py.com/examples/default/support'), (<lazyT 'Quick Examples'>, False, 'http://web2py.com/examples/default/examples'), (<lazyT 'FAQ'>, False, 'http://web2py.com/AlterEgo'), (<lazyT 'Free Applications'>, False, 'http://web2py.com/appliances'), (<lazyT 'Plugins'>, False, 'http://web2py.com/plugins'), (<lazyT 'Recipes'>, False, 'http://web2pyslices.com/'), (<lazyT 'Demo'>, False, 'http://web2py.com/demo_admin'), (<lazyT 'Semantic'>, False, 'http://web2py.com/semantic'), (<lazyT 'Layouts'>, False, 'http://web2py.com/layouts'), (<lazyT 'Videos'>, False, 'http://www.web2py.com/examples/default/videos/')])])]"
p320
sS'_view_environment'
p321
S"{'A': <class 'gluon.html.A'>, 'Auth': <class 'gluon.tools.Auth'>, 'B': <class 'gluon.html.B'>, 'BEAUTIFY': <class 'gluon.html.BEAUTIFY'>, 'BODY': <class 'gluon.html.BODY'>, 'BR': <class 'gluon.html.BR'>, 'CENTER': <class 'gluon.html.CENTER'>, 'CLEANUP': <class 'gluon.validators.CLEANUP'>, 'CODE': <class 'gluon.html.CODE'>, 'CRYPT': <class 'gluon.validators.CRYPT'>, ...}"
p322
sS'session_id_name'
p323
S"'session_id_marcado'"
p324
sS'_custom_commit'
p325
S'None'
p326
sS'_caller'
p327
S'<function <lambda>>'
p328
sS'files'
p329
S'[<gluon.html.XML object>, <gluon.html.XML object>, <gluon.html.XML object>, <gluon.html.XML object>, <gluon.html.XML object>, <gluon.html.XML object>, <gluon.html.XML object>]'
p330
sS'view'
p331
S"'clientes/index.html'"
p332
ssS'locals'
p333
(dp334
S'text'
p335
S"'\\n            Nome do Cliente: %s \\n\\n            Telefone para Contato: %s\\n            '"
p336
sS'self'
p337
S'<Virtual object>'
p338
sssS'traceback'
p339
S'Traceback (most recent call last):\n  File "/opt/web2py/gluon/restricted.py", line 188, in restricted\n    exec ccode in environment\n  File "/opt/web2py/applications/marcado/controllers/clientes.py", line 140, in <module>\n  File "/opt/web2py/gluon/globals.py", line 95, in <lambda>\n    self._caller = lambda f: f()\n  File "/opt/web2py/gluon/tools.py", line 2297, in f\n    return action(*a, **b)\n  File "/opt/web2py/applications/marcado/controllers/clientes.py", line 42, in index\n    return dict(clientes=clientes, table = table.create())\n  File "/opt/web2py/applications/marcado/models/plugin_powertable.py", line 704, in plugin_powertable\n    PowerTable(),\n  File "/opt/web2py/applications/marcado/models/plugin_powertable.py", line 145, in __init__\n    sqlrows.setvirtualfields(virtual=virtualfields)\n  File "/opt/web2py/gluon/dal.py", line 4600, in setvirtualfields\n    box[attribute]=method()\n  File "/opt/web2py/applications/marcado/controllers/clientes.py", line 16, in virtualtooltip\n    return (text % self.cliente.nome,self.cliente.telefone)\nTypeError: not enough arguments for format string\n'
p340
s.