(dp1
S'output'
p2
S''
sS'layer'
p3
S'/media/DADOS/Projetos/web2py/applications/marcado/controllers/agenda.py'
p4
sS'code'
p5
S'# coding: utf8\n\n\'\'\'\nImportando o simplejson para gerar os arquivos\nno formato JSON e enviando para o calendario\n\'\'\'\nimport simplejson as json\n@service.json\ndef index():\n    # Consultando os servicos do usuario logado\n    query = db.agenda.id > 0 and db.agenda.funcionario == session.auth.user.id and db.agenda.cliente == db.cliente.id\n    agenda = db(query).select(orderby = db.agenda.data)\n    teste[]\n    for ag in agenda:\n        # results = dict()\n        # results["id"] = ag.agenda.id\n        # results["title"] = ag.cliente.nome\n        # results["start"] = ag.agenda.data.strftime(\'%Y-%m-%d\')\n        teste.append(json.dumps({\'id\':ag.agenda.id,\'title\':ag.cliente.nome,\'start\':ag.agenda.data.strftime(\'%Y-%m-%d\')}, indent=4))\n    \n    print teste\n    return dict(teste = teste)\n\n\n@service.json\ndef dados_agenda():\n    # Consultando os servicos do usuario logado\n    query = db.agenda.id > 0 and db.agenda.funcionario == session.auth.user.id and db.agenda.cliente == db.cliente.id\n    agenda = db(query).select(orderby = db.agenda.data)\n    \n    for ag in agenda:\n        # results = dict()\n        # results["id"] = ag.agenda.id\n        # results["title"] = ag.cliente.nome\n        # results["start"] = ag.agenda.data.strftime(\'%Y-%m-%d\')\n        teste = json.dumps({\'id\':ag.agenda.id,\'title\':ag.cliente.nome,\'start\':ag.agenda.data.strftime(\'%Y-%m-%d\')}, indent=4)\n    \n    print teste\n    return dict(teste = teste)    \n\n\ndef novo():\n    return dict(form = crud.create(db.agenda))\n\nresponse._vars=response._caller(novo)\n'
p6
sS'snapshot'
p7
(dp8
S'exception'
p9
(dp10
S'__getslice__'
p11
S"<method-wrapper '__getslice__' of exceptions.SyntaxError object>"
p12
sS'text'
p13
S"'    teste[]\\n'"
p14
sS'__str__'
p15
S"<method-wrapper '__str__' of exceptions.SyntaxError object>"
p16
sS'__reduce__'
p17
S'<built-in method __reduce__ of exceptions.SyntaxError object>'
p18
sS'__dict__'
p19
S'{}'
p20
sS'__sizeof__'
p21
S'<built-in method __sizeof__ of exceptions.SyntaxError object>'
p22
sS'__init__'
p23
S"<method-wrapper '__init__' of exceptions.SyntaxError object>"
p24
sS'__setattr__'
p25
S"<method-wrapper '__setattr__' of exceptions.SyntaxError object>"
p26
sS'__reduce_ex__'
p27
S'<built-in method __reduce_ex__ of exceptions.SyntaxError object>'
p28
sS'__new__'
p29
S'<built-in method __new__ of type object>'
p30
sS'__format__'
p31
S'<built-in method __format__ of exceptions.SyntaxError object>'
p32
sS'__class__'
p33
S"<type 'exceptions.SyntaxError'>"
p34
sS'filename'
p35
S"'/media/DADOS/Projetos/web2py/applications/marcado/controllers/agenda.py'"
p36
sS'lineno'
p37
S'13'
p38
sS'msg'
p39
S"'invalid syntax'"
p40
sS'__doc__'
p41
S"'Invalid syntax.'"
p42
sS'__getitem__'
p43
S"<method-wrapper '__getitem__' of exceptions.SyntaxError object>"
p44
sS'__setstate__'
p45
S'<built-in method __setstate__ of exceptions.SyntaxError object>'
p46
sS'__getattribute__'
p47
S"<method-wrapper '__getattribute__' of exceptions.SyntaxError object>"
p48
sS'print_file_and_line'
p49
S'None'
p50
sS'args'
p51
S"('invalid syntax', ('/media/DADOS/Projetos/web2py/applications/marcado/controllers/agenda.py', 13, 11, '    teste[]\\n'))"
p52
sS'__subclasshook__'
p53
S'<built-in method __subclasshook__ of type object>'
p54
sS'offset'
p55
S'11'
p56
sS'__unicode__'
p57
S'<built-in method __unicode__ of exceptions.SyntaxError object>'
p58
sS'__delattr__'
p59
S"<method-wrapper '__delattr__' of exceptions.SyntaxError object>"
p60
sS'__repr__'
p61
S"<method-wrapper '__repr__' of exceptions.SyntaxError object>"
p62
sS'__hash__'
p63
S"<method-wrapper '__hash__' of exceptions.SyntaxError object>"
p64
ssS'evalue'
p65
S'invalid syntax (agenda.py, line 13)'
p66
sS'request'
p67
(dp68
S'function'
p69
S"'novo'"
p70
sS'body'
p71
S"<open file '<fdopen>', mode 'w+b'>"
p72
sS'wsgi'
p73
S"<Storage {'start_response': <function <lambda> a...>, 'HTTP_ACCEPT_ENCODING': 'gzip,deflate,sdch'}}>"
p74
sS'extension'
p75
S"'html'"
p76
sS'vars'
p77
S"<Storage {'hora': '14:15', 'tipo_servico': '1', ...c8f866d9', 'data': '27/01/2011', 'cliente': '1'}>"
p78
sS'cid'
p79
S'None'
p80
sS'url'
p81
S'<gluon.html.XML object>'
p82
sS'raw_extension'
p83
S'None'
p84
sg51
S'[]'
p85
sS'controller'
p86
S"'agenda'"
p87
sS'cookies'
p88
S"<SimpleCookie: session_id_admin='127.0.0.1-0b0a4...'127.0.0.1-fa70f9ea-ccf4-4204-98dc-78dcd672cdf6'>"
p89
sS'application'
p90
S"'marcado'"
p91
sS'ajax'
p92
S'False'
p93
sS'client'
p94
S"'127.0.0.1'"
p95
sS'env'
p96
S"<Storage {'content_length': '968', 'http_accept_...undaryKUKrodIpTG4cyGDw', 'remote_port': '60595'}>"
p97
sS'raw_args'
p98
S'None'
p99
sS'get_vars'
p100
S'<Storage {}>'
p101
sS'folder'
p102
S"'/media/DADOS/Projetos/web2py/applications/marcado/'"
p103
sS'now'
p104
S'datetime.datetime(2011, 1, 18, 23, 38, 52, 486566)'
p105
sS'post_vars'
p106
S"<Storage {'hora': '14:15', 'tipo_servico': '1', ...c8f866d9', 'data': '27/01/2011', 'cliente': '1'}>"
p107
ssS'frames'
p108
(lp109
(dp110
S'file'
p111
S'/media/DADOS/Projetos/web2py/gluon/restricted.py'
p112
sS'dump'
p113
(dp114
S'code'
p115
S'"# coding: utf8\\n\\n\'\'\'\\nImportando o simplejson para....agenda))\\n\\nresponse._vars=response._caller(novo)\\n"'
p116
sS'layer'
p117
S"'/media/DADOS/Projetos/web2py/applications/marcado/controllers/agenda.py'"
p118
sS'global compile2'
p119
S'<function compile2>'
p120
sS'ccode'
p121
S'undefined'
p122
ssS'lnum'
p123
I186
sS'lines'
p124
(dp125
I181
S''
sI182
S'    try:'
p126
sI183
S'        if type(code) == types.CodeType:'
p127
sI184
S'            ccode = code'
p128
sI185
S'        else:'
p129
sI186
S'            ccode = compile2(code,layer)'
p130
sI187
S''
sI188
S'        exec ccode in environment'
p131
sI189
S'    except HTTP:'
p132
sI190
S'        raise'
p133
ssS'call'
p134
S'(code="# coding: utf8\\n\\n\'\'\'\\nImportando o simplejson para....agenda))\\n\\nresponse._vars=response._caller(novo)\\n", environment={\'A\': <class \'gluon.html.A\'>, \'Auth\': <class \'gluon.tools.Auth\'>, \'B\': <class \'gluon.html.B\'>, \'BEAUTIFY\': <class \'gluon.html.BEAUTIFY\'>, \'BODY\': <class \'gluon.html.BODY\'>, \'BR\': <class \'gluon.html.BR\'>, \'CENTER\': <class \'gluon.html.CENTER\'>, \'CLEANUP\': <class \'gluon.validators.CLEANUP\'>, \'CODE\': <class \'gluon.html.CODE\'>, \'CRYPT\': <class \'gluon.validators.CRYPT\'>, ...}, layer=\'/media/DADOS/Projetos/web2py/applications/marcado/controllers/agenda.py\')'
p135
sS'func'
p136
S'restricted'
p137
sa(dp138
g111
S'/media/DADOS/Projetos/web2py/gluon/restricted.py'
p139
sg113
(dp140
S'builtincompile'
p141
S'<built-in function compile>'
p142
sS'code'
p143
S'"# coding: utf8\\n\\n\'\'\'\\nImportando o simplejson para....agenda))\\n\\nresponse._vars=response._caller(novo)\\n"'
p144
sS'code.rstrip'
p145
S'<built-in method rstrip of str object>'
p146
sS').replace'
p147
g122
sS'layer'
p148
S"'/media/DADOS/Projetos/web2py/applications/marcado/controllers/agenda.py'"
p149
ssg123
I173
sg124
(dp150
I168
S''
sI169
S'def compile2(code,layer):'
p151
sI170
S'    """'
p152
sI171
S"    The +'\\n' is necessary else compile fails when code ends in a comment."
p153
sI172
S'    """'
p154
sI173
S"    return compile(code.rstrip().replace('\\r\\n','\\n')+'\\n', layer, 'exec')"
p155
sI174
S''
sI175
S"def restricted(code, environment={}, layer='Unknown'):"
p156
sI176
S'    """'
p157
sI177
S'    runs code in environment and returns the output. if an exception occurs'
p158
ssg134
S'(code="# coding: utf8\\n\\n\'\'\'\\nImportando o simplejson para....agenda))\\n\\nresponse._vars=response._caller(novo)\\n", layer=\'/media/DADOS/Projetos/web2py/applications/marcado/controllers/agenda.py\')'
p159
sg136
S'compile2'
p160
sasS'pyver'
p161
S'Python 2.6.6: /usr/bin/python'
p162
sS'session'
p163
(dp164
S'_formkey[agenda/None]'
p165
S"'a896deb1-659c-4f66-b059-ecb645bf6bdb'"
p166
sS'flash'
p167
S'None'
p168
sS'auth'
p169
S"<Storage {'expiration': 3600, 'user': <Storage {..., 1, 18, 23, 38, 52, 486566), 'remember': False}>"
p170
sS'_formkey[login]'
p171
S"'940e3602-170c-45c5-bd9c-f0b7d067d3cc'"
p172
ssS'etype'
p173
S"<type 'exceptions.SyntaxError'>"
p174
sS'date'
p175
S'Tue Jan 18 23:38:52 2011'
p176
sS'response'
p177
(dp178
S'status'
p179
S'200'
p180
sg71
S'<cStringIO.StringO object>'
p181
sg88
S"<SimpleCookie: session_id_marcado='127.0.0.1-c09e1abf-1f14-431e-9d11-58320a8f2689'>"
p182
sS'_vars'
p183
S'None'
p184
sS'title'
p185
S"'Marcado!'"
p186
sS'session_file'
p187
S"<open file '/media/DADOS/Projetos/web2py/applica...09e1abf-1f14-431e-9d11-58320a8f2689', mode 'rb+'>"
p188
sS'flash'
p189
S"''"
p190
sS'_custom_rollback'
p191
S'None'
p192
sS'session_id'
p193
S"'127.0.0.1-c09e1abf-1f14-431e-9d11-58320a8f2689'"
p194
sS'headers'
p195
S"<Storage {'Expires': 'Wed, 19 Jan 2011 01:38:52 ...he, must-revalidate, post-check=0, pre-check=0'}>"
p196
sS'meta'
p197
S"<Storage {'keywords': 'web2py, python, framework...Enterprise Framework', 'author': 'Gilson Filho'}>"
p198
sS'session_filename'
p199
S"'/media/DADOS/Projetos/web2py/applications/marcad...ns/127.0.0.1-c09e1abf-1f14-431e-9d11-58320a8f2689'"
p200
sS'postprocessing'
p201
S'[]'
p202
sS'menu'
p203
S"[(<lazyT 'Home'>, False, <gluon.html.XML object>, []), (<lazyT 'This App'>, False, <gluon.html.XML object>, [(<lazyT 'Controller'>, False, <gluon.html.XML object>), (<lazyT 'View'>, False, <gluon.html.XML object>), (<lazyT 'Layout'>, False, <gluon.html.XML object>), (<lazyT 'Stylesheet'>, False, <gluon.html.XML object>), (<lazyT 'DB Model'>, False, <gluon.html.XML object>), (<lazyT 'Menu Model'>, False, <gluon.html.XML object>), (<lazyT 'Database'>, False, <gluon.html.XML object>), (<lazyT 'Errors'>, False, <gluon.html.XML object>), (<lazyT 'About'>, False, <gluon.html.XML object>)]), (<lazyT 'Resources'>, False, None, [(<lazyT 'Documentation'>, False, 'http://www.web2py.com/book', [(<lazyT 'Preface'>, False, 'http://www.web2py.com/book/default/chapter/00'), (<lazyT 'Introduction'>, False, 'http://www.web2py.com/book/default/chapter/01'), (<lazyT 'Python'>, False, 'http://www.web2py.com/book/default/chapter/02'), (<lazyT 'Overview'>, False, 'http://www.web2py.com/book/default/chapter/03'), (<lazyT 'The Core'>, False, 'http://www.web2py.com/book/default/chapter/04'), (<lazyT 'The Views'>, False, 'http://www.web2py.com/book/default/chapter/05'), (<lazyT 'Database'>, False, 'http://www.web2py.com/book/default/chapter/06'), (<lazyT 'Forms and Validators'>, False, 'http://www.web2py.com/book/default/chapter/07'), (<lazyT 'Access Control'>, False, 'http://www.web2py.com/book/default/chapter/08'), (<lazyT 'Services'>, False, 'http://www.web2py.com/book/default/chapter/09'), (<lazyT 'Ajax Recipes'>, False, 'http://www.web2py.com/book/default/chapter/10'), (<lazyT 'Deployment Recipes'>, False, 'http://www.web2py.com/book/default/chapter/11'), (<lazyT 'Other Recipes'>, False, 'http://www.web2py.com/book/default/chapter/12'), (<lazyT 'Buy this book'>, False, 'http://stores.lulu.com/web2py')]), (<lazyT 'Community'>, False, None, [(<lazyT 'Groups'>, False, 'http://www.web2py.com/examples/default/usergroups'), (<lazyT 'Twitter'>, False, 'http://twitter.com/web2py'), (<lazyT 'Live chat'>, False, 'http://mibbit.com/?channel=%23web2py&server=irc.mibbit.net'), (<lazyT 'User Voice'>, False, 'http://web2py.uservoice.com/')]), (<lazyT 'Web2py'>, False, 'http://www.web2py.com', [(<lazyT 'Download'>, False, 'http://www.web2py.com/examples/default/download'), (<lazyT 'Support'>, False, 'http://www.web2py.com/examples/default/support'), (<lazyT 'Quick Examples'>, False, 'http://web2py.com/examples/default/examples'), (<lazyT 'FAQ'>, False, 'http://web2py.com/AlterEgo'), (<lazyT 'Free Applications'>, False, 'http://web2py.com/appliances'), (<lazyT 'Plugins'>, False, 'http://web2py.com/plugins'), (<lazyT 'Recipes'>, False, 'http://web2pyslices.com/'), (<lazyT 'Demo'>, False, 'http://web2py.com/demo_admin'), (<lazyT 'Semantic'>, False, 'http://web2py.com/semantic'), (<lazyT 'Layouts'>, False, 'http://web2py.com/layouts'), (<lazyT 'Videos'>, False, 'http://www.web2py.com/examples/default/videos/')])])]"
p204
sS'_view_environment'
p205
S"{'A': <class 'gluon.html.A'>, 'Auth': <class 'gluon.tools.Auth'>, 'B': <class 'gluon.html.B'>, 'BEAUTIFY': <class 'gluon.html.BEAUTIFY'>, 'BODY': <class 'gluon.html.BODY'>, 'BR': <class 'gluon.html.BR'>, 'CENTER': <class 'gluon.html.CENTER'>, 'CLEANUP': <class 'gluon.validators.CLEANUP'>, 'CODE': <class 'gluon.html.CODE'>, 'CRYPT': <class 'gluon.validators.CRYPT'>, ...}"
p206
sS'session_id_name'
p207
S"'session_id_marcado'"
p208
sS'_custom_commit'
p209
S'None'
p210
sS'_caller'
p211
S'<function <lambda>>'
p212
sS'files'
p213
S'[]'
p214
sS'view'
p215
S"'agenda/novo.html'"
p216
ssS'locals'
p217
(dp218
g3
S"'/media/DADOS/Projetos/web2py/applications/marcado/controllers/agenda.py'"
p219
sg5
S'"# coding: utf8\\n\\n\'\'\'\\nImportando o simplejson para....agenda))\\n\\nresponse._vars=response._caller(novo)\\n"'
p220
sssS'traceback'
p221
S'Traceback (most recent call last):\n  File "/media/DADOS/Projetos/web2py/gluon/restricted.py", line 186, in restricted\n    ccode = compile2(code,layer)\n  File "/media/DADOS/Projetos/web2py/gluon/restricted.py", line 173, in compile2\n    return compile(code.rstrip().replace(\'\\r\\n\',\'\\n\')+\'\\n\', layer, \'exec\')\n  File "/media/DADOS/Projetos/web2py/applications/marcado/controllers/agenda.py", line 13\n    teste[]\n          ^\nSyntaxError: invalid syntax\n'
p222
s.