(dp1
S'output'
p2
S''
sS'layer'
p3
S'/opt/web2py/applications/marcado/views/clientes/index.html'
p4
sS'code'
p5
S'response.write(\'<!DOCTYPE html>\\r\\n<html lang="\', escape=False)\nresponse.write(T.accepted_language or \'en\')\nresponse.write(\'" class="no-js"><!-- no-js need it for modernzr -->\\r\\n    <head>\\r\\n        <meta charset="utf-8" />        \\r\\n        <meta http-equiv="X-UA-Compatible" content="IE=edge,chrome=1">\\r\\n    \\r\\n        <title>\', escape=False)\nresponse.write(response.title or request.application)\nresponse.write(\'</title>\\r\\n    \\r\\n        <!-- http://dev.w3.org/html5/markup/meta.name.html -->\\r\\n        <meta name="application-name" content="\', escape=False)\nresponse.write(request.application)\nresponse.write(\'" /> \\r\\n    \\r\\n        <!-- Speaking of Google, don\\\'t forget to set your site up: http://google.com/webmasters -->\\r\\n        <meta name="google-site-verification" content="" />\\r\\n    \\r\\n        <!-- Place favicon.ico and apple-touch-icon.png in the root of your domain and delete these references -->\\r\\n        <link rel="shortcut icon" href="\', escape=False)\nresponse.write(URL(\'static\',\'favicon.ico\'))\nresponse.write(\'" type="image/x-icon">\\r\\n    \\r\\n        <!-- All JavaScript at the bottom, except for Modernizr which enables HTML5 elements & feature detects -->\\r\\n        <script src="\', escape=False)\nresponse.write(URL(\'static\',\'js/modernizr-1.6.min.js\'))\nresponse.write(\'"></script>\\r\\n    \\r\\n        <!-- Arquivos CSS e Javascript -->\\r\\n        \', escape=False)\nresponse.files.append(URL(\'static\',\'css/base.css\'))\nresponse.write(\'\\r\\n        \', escape=False)\nresponse.files.append(URL(\'static\',\'css/formularios.css\'))\nresponse.write(\'              \\r\\n        \', escape=False)\nresponse.files.append(URL(\'static\',\'css/superfish.css\'))\nresponse.write(\'\\r\\n        \\r\\n        <!-- Modulo de clientes -->\\r\\n        \', escape=False)\nresponse.files.append(URL(\'static\',\'css/modulos/clientes/clientes.css\'))\nresponse.write(\'\\r\\n        \', escape=False)\nresponse.files.append(URL(\'static\',\'js/modulos/clientes/clientes.js\'))\nresponse.write(\'\\r\\n        \\r\\n        <!-- Modulo de Funcionarios -->\\r\\n        \', escape=False)\nresponse.files.append(URL(\'static\',\'css/modulos/funcionarios/funcionarios.css\'))\nresponse.write(\'\\r\\n        \\r\\n        <!-- Modulo de Servicos -->\\r\\n        \', escape=False)\nresponse.files.append(URL(\'static\',\'css/modulos/servicos/servicos.css\'))\nresponse.write(\'\\r\\n        \\r\\n        \', escape=False)\n#------ include web2py specific js code (jquery, calendar, form stuff) ------\nresponse.write(\'\\r\\n        \', escape=False)\nresponse.files.insert(0,URL(\'static\',\'js/jquery.js\'))\nresponse.files.insert(1,URL(\'static\',\'css/custom-theme/jquery-ui-1.8.7.custom.css\'))\nresponse.files.insert(2,URL(\'static\',\'js/jquery-ui-1.8.7.custom.min.js\'))\nresponse.files.insert(3,URL(\'static\',\'js/jquery.maskedinput-1.1.4.pack.js\'))\nfor _item in response.meta or []:\n    response.write(\'\\n     <meta name="\', escape=False)\n    response.write(_item)\n    response.write(\'" content="\', escape=False)\n    response.write(response.meta[_item])\n    response.write(\'" />\', escape=False)\n    pass\nfor _k,_file in enumerate(response.files or []):\n    if _file in response.files[:_k]:\n        continue\n    _file0=_file.lower().split(\'?\')[0]\n    if _file0.endswith(\'.css\'):\n        response.write(\'\\n     <link href="\', escape=False)\n        response.write(_file)\n        response.write(\'" rel="stylesheet" type="text/css" />\', escape=False)\n    elif _file0.endswith(\'.js\'):\n        response.write(\'\\n     <script src="\', escape=False)\n        response.write(_file)\n        response.write(\'" type="text/javascript"></script>\', escape=False)\n        pass\n    pass\nresponse.write(\'\\n  \\n<script type="text/javascript"><!--\\nfunction popup(url) {\\n  newwindow=window.open(url,\\\'name\\\',\\\'height=400,width=600\\\');\\n  if (window.focus) newwindow.focus();\\n  return false;\\n}\\nfunction collapse(id) { jQuery(\\\'#\\\'+id).slideToggle(); }\\nfunction fade(id,value) { if(value>0) jQuery(\\\'#\\\'+id).hide().fadeIn(\\\'slow\\\'); else jQuery(\\\'#\\\'+id).show().fadeOut(\\\'slow\\\'); }\\nfunction ajax(u,s,t) {\\n    query = \\\'\\\';\\n    if (typeof s == "string") {\\n        d = jQuery(s).serialize();\\n        if(d){ query = d; }\\n    } else {\\n        pcs = [];\\n        for(i=0; i<s.length; i++) {\\n            q = jQuery("[name="+s[i]+"]").serialize();\\n            if(q){pcs.push(q);}\\n        }\\n        if (pcs.length>0){query = pcs.join("&");}\\n    }\\n    jQuery.ajax({type: "POST", url: u, data: query, success: function(msg) { if(t) { if(t==\\\':eval\\\') eval(msg); else jQuery("#" + t).html(msg); } } }); \\n}\\n\\nString.prototype.reverse = function () { return this.split(\\\'\\\').reverse().join(\\\'\\\');};\\nfunction web2py_ajax_init() {\\n  jQuery(\\\'.hidden\\\').hide();\\n  jQuery(\\\'.error\\\').hide().slideDown(\\\'slow\\\');\\n  jQuery(\\\'.flash\\\').click(function() { jQuery(this).fadeOut(\\\'slow\\\'); return false; });\\n  // jQuery(\\\'input[type=submit]\\\').click(function(){var t=jQuery(this);t.hide();t.after(\\\'<input class="submit_disabled" disabled="disabled" type="submit" name="\\\'+t.attr("name")+\\\'_dummy" value="\\\'+t.val()+\\\'">\\\')});\\n  jQuery(\\\'input.integer\\\').keyup(function(){this.value=this.value.reverse().replace(/[^0-9\\\\-]|\\\\-(?=.)/g,\\\'\\\').reverse();});\\n  jQuery(\\\'input.double,input.decimal\\\').keyup(function(){this.value=this.value.reverse().replace(/[^0-9\\\\-\\\\.]|[\\\\-](?=.)|[\\\\.](?=[0-9]*[\\\\.])/g,\\\'\\\').reverse();});\\n  jQuery("input[type=\\\'checkbox\\\'].delete").each(function(){jQuery(this).click(function() { if(this.checked) if(!confirm("\', escape=False)\nresponse.write(T(\'Sure you want to delete this object?\'))\nresponse.write(\'")) this.checked=false; });});\\n  try {\\n      jQuery("input.date").focus( function() {\\n          jQuery("input.date").datepicker({\\n              inline: true,\\n              dateFormat: "dd/mm/yy"\\n          });    \\n      }); \\n      jQuery("input.date").click( function() {\\n          jQuery("input.date").datepicker({\\n              inline: true,\\n              dateFormat: "dd/mm/yy"\\n          });    \\n      });      \\n  } catch(e) {};\\n  try { jQuery("input.datetime").focus( function() {\\n      jQuery("input.datetime").datepicker({\\n          inline: true,\\n          dateFormat: "dd/mm/yy"\\n      })  \\n  }); } catch(e) {};\\n  try { jQuery("input.time").timeEntry(); } catch(e) {};\\n};\\n\\njQuery(document).ready(function() {   \\n   var flash = jQuery(\\\'.flash\\\');\\n   flash.hide();\\n   if(flash.html()) flash.slideDown();\\n   web2py_ajax_init();\\n});\\nfunction web2py_trap_form(action,target) {\\n   jQuery(\\\'#\\\'+target+\\\' form\\\').each(function(i){\\n      var form=jQuery(this);\\n      if(!form.hasClass(\\\'no_trap\\\'))\\n        form.submit(function(obj){\\n         jQuery(\\\'.flash\\\').hide().html(\\\'\\\');\\n         web2py_ajax_page(\\\'post\\\',action,form.serialize(),target);\\n         return false;\\n      });\\n   });\\n}\\nfunction web2py_ajax_page(method,action,data,target) {\\n  jQuery.ajax({\\\'type\\\':method,\\\'url\\\':action,\\\'data\\\':data,\\n    \\\'beforeSend\\\':function(xhr) {\\n      xhr.setRequestHeader(\\\'web2py-component-location\\\',document.location);\\n      xhr.setRequestHeader(\\\'web2py-component-element\\\',target);},\\n    \\\'complete\\\':function(xhr,text){\\n      var html=xhr.responseText;\\n      var content=xhr.getResponseHeader(\\\'web2py-component-content\\\'); \\n      var command=xhr.getResponseHeader(\\\'web2py-component-command\\\');\\n      var flash=xhr.getResponseHeader(\\\'web2py-component-flash\\\');\\n      var t = jQuery(\\\'#\\\'+target);\\n      if(content==\\\'prepend\\\') t.prepend(html); \\n      else if(content==\\\'append\\\') t.append(html);\\n      else if(content!=\\\'hide\\\') t.html(html);  \\n      web2py_trap_form(action,target);\\n      web2py_ajax_init();      \\n      if(command) eval(command);\\n      if(flash) jQuery(\\\'.flash\\\').html(flash).slideDown();\\n      }\\n    });\\n}\\nfunction web2py_component(action,target) {\\n    jQuery(document).ready(function(){ web2py_ajax_page(\\\'get\\\',action,null,target); });\\n}\\n//--></script>\\n\', escape=False)\nresponse.write(\'\\r\\n       \\r\\n    </head>\\r\\n\\r\\n    <!-- paulirish.com/2008/conditional-stylesheets-vs-css-hacks-answer-neither/ -->  \\r\\n    <!--[if lt IE 7 ]> <body class="ie6"> <![endif]-->\\r\\n    <!--[if IE 7 ]>    <body class="ie7"> <![endif]-->\\r\\n    <!--[if IE 8 ]>    <body class="ie8"> <![endif]-->\\r\\n    <!--[if IE 9 ]>    <body class="ie9"> <![endif]-->\\r\\n    <!--[if (gt IE 9)|!(IE)]><!--><body><!--<![endif]-->\\r\\n    <div id="headBlock">\\r\\n        <div class="headWrap">\\r\\n            <div class="headTitle">\\r\\n                <a href="#">Marcado!</a>\\r\\n\\r\\n            </div>\\r\\n            <div class="headMenus">\\r\\n                <ul class="mainNav">\\r\\n                    <li class="usuario">\\r\\n                        \', escape=False)\nif session.auth:\n    response.write(\'\\r\\n                            <b>Usu\\xc3\\xa1rio:</b> \', escape=False)\n    response.write(session.auth.user.username)\n    response.write(\'\\r\\n                        \', escape=False)\n    pass\nresponse.write(\'                    \\r\\n                    </li>\\r\\n                </ul>\\r\\n                \', escape=False)\nresponse.write(\'<ul class="subNav">\\r\\n    <!-- \', escape=False)\nresponse.write(MENU(response.menu,_class=\'sf-menu\'))\nresponse.write(\' -->\\r\\n    <li class="current_page_item">\\r\\n        <a href="#" class="button">\\r\\n            <span class="link_menu menu_agenda">Agenda do Dia</span>\\r\\n        </a>\\r\\n    </li>\\r\\n    <li>\\r\\n        <a href="\', escape=False)\nresponse.write(URL(request.application, \'agenda\', \'novo\'))\nresponse.write(\'" class="button">\\r\\n            <span class="link_menu menu_horario">Marcar Hor\\xc3\\xa1rio</span>\\r\\n        </a>\\r\\n    </li>\\r\\n    <li>\\r\\n        <a href="\', escape=False)\nresponse.write(URL(request.application, \'clientes\',\'index\'))\nresponse.write(\'" class="button">\\r\\n            <span class="link_menu menu_clientes">Clientes</span>\\r\\n        </a>                    \\r\\n    </li>\\r\\n    <li>\\r\\n        <a href="\', escape=False)\nresponse.write(URL(request.application, \'servicos\', \'index\'))\nresponse.write(\'" class="button">\\r\\n            <span class="link_menu menu_pedidos">Servi\\xc3\\xa7os</span>\\r\\n        </a>                    \\r\\n    </li>\\r\\n    <li>\\r\\n        <a href="\', escape=False)\nresponse.write(URL(request.application, \'funcionarios\', \'index\'))\nresponse.write(\'" class="button">\\r\\n            <span class="link_menu menu_perfil">Funcion\\xc3\\xa1rios</span>\\r\\n        </a>                    \\r\\n    </li>  \\r\\n    <li>\\r\\n        <a href="\', escape=False)\nresponse.write(URL(request.application, \'default\', \'user\', args = \'change_password\'))\nresponse.write(\'" class="button">\\r\\n            <span class="link_menu menu_alterar_senha">Alterar Senha</span>\\r\\n        </a>                    \\r\\n    </li>                                  \\r\\n    <li>\\r\\n        <a href="\', escape=False)\nresponse.write(URL(request.application, \'default\', \'user\', args = \'logout\'))\nresponse.write(\'" class="button">\\r\\n            <span class="link_menu menu_sair">Sair</span>\\r\\n        </a>                    \\r\\n    </li>                \\r\\n</ul>\\r\\n\', escape=False)\nresponse.write(\'               \\r\\n            </div>\\r\\n        </div>\\r\\n        <div class="headFooter"></div>\\r\\n    </div>\\r\\n    \\r\\n    <div id="wrapper">\\r\\n        <div id="mainArea">\\r\\n            \', escape=False)\nif response.flash:\n    response.write(\'\\r\\n                <div class="ui-widget" style="margin-top: 20px; padding: 0 .7em;">\\r\\n                    <div class="ui-state-highlight ui-corner-all">\\r\\n                        <p>\\r\\n                            <span class="ui-icon ui-icon-info" style="float: left; margin-right: .3em;"></span>\\r\\n                            \', escape=False)\n    response.write(response.flash or \'\')\n    response.write(\'\\r\\n                        </p>\\r\\n                    </div>\\r\\n                </div> <!-- notification div -->        \\r\\n            \', escape=False)\n    pass\nresponse.write(\'\\r\\n            \', escape=False)\nresponse.write(\'\\r\\n\', escape=False)\n# if clientes:\nresponse.write(\'\\r\\n    <h2>Lista de Clientes Cadastrados</h2>\\r\\n    \', escape=False)\nresponse.write(table)\nresponse.write(\'\\r\\n\', escape=False)\n# else:\nresponse.write(\'\\r\\n    <center>\\r\\n        <h3>\', escape=False)\nresponse.write(#mensagem)\nresponse.write(\'</h3>\\r\\n    </center>\\r\\n\', escape=False)\n# pass\nresponse.write(\'\\r\\n<br />\\r\\n<div class="navegacao">\\r\\n    <center><a href="\', escape=False)\nresponse.write(URL(request.application, \'clientes\',\'novo\'))\nresponse.write(\'">Novo Cliente</a></center>\\r\\n</div>\\r\\n\', escape=False)\nresponse.write(\' \\r\\n        </div>\\r\\n    </div>      \\r\\n    \\r\\n    <div class="pageFooter">\\r\\n        <div class="footerContents">\\r\\n            Powered by \\r\\n            <a href="http://web2py.com"><img src="\', escape=False)\nresponse.write(URL(\'static\',\'images/poweredby.png\'))\nresponse.write(\'" alt="web2py"/></a><br />\\r\\n        </div>\\r\\n    </div>   \\r\\n  </body>\\r\\n</html>\\r\\n\', escape=False)'
p6
sS'snapshot'
p7
(dp8
S'exception'
p9
(dp10
S'__getslice__'
p11
S"<method-wrapper '__getslice__' of exceptions.SyntaxError object>"
p12
sS'text'
p13
S'\'response.write(\\\'\\\\r\\\\n<br />\\\\r\\\\n<div class="navegacao">\\\\r\\\\n    <center><a href="\\\', escape=False)\\n\''
p14
sS'__str__'
p15
S"<method-wrapper '__str__' of exceptions.SyntaxError object>"
p16
sS'__reduce__'
p17
S'<built-in method __reduce__ of exceptions.SyntaxError object>'
p18
sS'__dict__'
p19
S'{}'
p20
sS'__sizeof__'
p21
S'<built-in method __sizeof__ of exceptions.SyntaxError object>'
p22
sS'__init__'
p23
S"<method-wrapper '__init__' of exceptions.SyntaxError object>"
p24
sS'__setattr__'
p25
S"<method-wrapper '__setattr__' of exceptions.SyntaxError object>"
p26
sS'__reduce_ex__'
p27
S'<built-in method __reduce_ex__ of exceptions.SyntaxError object>'
p28
sS'__new__'
p29
S'<built-in method __new__ of type object>'
p30
sS'__format__'
p31
S'<built-in method __format__ of exceptions.SyntaxError object>'
p32
sS'__class__'
p33
S"<type 'exceptions.SyntaxError'>"
p34
sS'filename'
p35
S"'/opt/web2py/applications/marcado/views/clientes/index.html'"
p36
sS'lineno'
p37
S'95'
p38
sS'msg'
p39
S"'invalid syntax'"
p40
sS'__doc__'
p41
S"'Invalid syntax.'"
p42
sS'__getitem__'
p43
S"<method-wrapper '__getitem__' of exceptions.SyntaxError object>"
p44
sS'__setstate__'
p45
S'<built-in method __setstate__ of exceptions.SyntaxError object>'
p46
sS'__getattribute__'
p47
S"<method-wrapper '__getattribute__' of exceptions.SyntaxError object>"
p48
sS'print_file_and_line'
p49
S'None'
p50
sS'args'
p51
S'(\'invalid syntax\', (\'/opt/web2py/applications/marcado/views/clientes/index.html\', 95, 8, \'response.write(\\\'\\\\r\\\\n<br />\\\\r\\\\n<div class="navegacao">\\\\r\\\\n    <center><a href="\\\', escape=False)\\n\'))'
p52
sS'__subclasshook__'
p53
S'<built-in method __subclasshook__ of type object>'
p54
sS'offset'
p55
S'8'
sS'__unicode__'
p56
S'<built-in method __unicode__ of exceptions.SyntaxError object>'
p57
sS'__delattr__'
p58
S"<method-wrapper '__delattr__' of exceptions.SyntaxError object>"
p59
sS'__repr__'
p60
S"<method-wrapper '__repr__' of exceptions.SyntaxError object>"
p61
sS'__hash__'
p62
S"<method-wrapper '__hash__' of exceptions.SyntaxError object>"
p63
ssS'evalue'
p64
S'invalid syntax (index.html, line 95)'
p65
sS'request'
p66
(dp67
S'function'
p68
S"'index'"
p69
sS'body'
p70
S'<cStringIO.StringO object>'
p71
sS'wsgi'
p72
S"<Storage {'start_response': <function <lambda> a...>, 'HTTP_ACCEPT_ENCODING': 'gzip,deflate,sdch'}}>"
p73
sS'extension'
p74
S"'html'"
p75
sS'vars'
p76
S'<Storage {}>'
p77
sS'cid'
p78
S'None'
p79
sS'url'
p80
S'<gluon.html.XML object>'
p81
sS'raw_extension'
p82
S'None'
p83
sg51
S'[]'
p84
sS'controller'
p85
S"'clientes'"
p86
sS'cookies'
p87
S"<SimpleCookie: session_id_admin='127.0.0.1-c4c54...'127.0.0.1-122a9335-d972-430e-8cc5-7d477b8b920c'>"
p88
sS'application'
p89
S"'marcado'"
p90
sS'ajax'
p91
S'False'
p92
sS'client'
p93
S"'127.0.0.1'"
p94
sS'env'
p95
S"<Storage {'wsgi_multithread': True, 'http_accept... 'wsgi_run_once': False, 'remote_port': '34218'}>"
p96
sS'raw_args'
p97
S'None'
p98
sS'get_vars'
p99
S'<Storage {}>'
p100
sS'folder'
p101
S"'/opt/web2py/applications/marcado/'"
p102
sS'now'
p103
S'datetime.datetime(2011, 1, 12, 21, 55, 18, 333918)'
p104
sS'post_vars'
p105
S'<Storage {}>'
p106
ssS'frames'
p107
(lp108
(dp109
S'file'
p110
S'/opt/web2py/gluon/restricted.py'
p111
sS'dump'
p112
(dp113
S'code'
p114
S'\'response.write(\\\'<!DOCTYPE html>\\\\r\\\\n<html lang="\\\'...v>   \\\\r\\\\n  </body>\\\\r\\\\n</html>\\\\r\\\\n\\\', escape=False)\''
p115
sS'layer'
p116
S"'/opt/web2py/applications/marcado/views/clientes/index.html'"
p117
sS'global compile2'
p118
S'<function compile2>'
p119
sS'ccode'
p120
S'undefined'
p121
ssS'lnum'
p122
I186
sS'lines'
p123
(dp124
I181
S''
sI182
S'    try:'
p125
sI183
S'        if type(code) == types.CodeType:'
p126
sI184
S'            ccode = code'
p127
sI185
S'        else:'
p128
sI186
S'            ccode = compile2(code,layer)'
p129
sI187
S''
sI188
S'        exec ccode in environment'
p130
sI189
S'    except HTTP:'
p131
sI190
S'        raise'
p132
ssS'call'
p133
S'(code=\'response.write(\\\'<!DOCTYPE html>\\\\r\\\\n<html lang="\\\'...v>   \\\\r\\\\n  </body>\\\\r\\\\n</html>\\\\r\\\\n\\\', escape=False)\', environment={\'A\': <class \'gluon.html.A\'>, \'Auth\': <class \'gluon.tools.Auth\'>, \'B\': <class \'gluon.html.B\'>, \'BEAUTIFY\': <class \'gluon.html.BEAUTIFY\'>, \'BODY\': <class \'gluon.html.BODY\'>, \'BR\': <class \'gluon.html.BR\'>, \'CENTER\': <class \'gluon.html.CENTER\'>, \'CLEANUP\': <class \'gluon.validators.CLEANUP\'>, \'CODE\': <class \'gluon.html.CODE\'>, \'CRYPT\': <class \'gluon.validators.CRYPT\'>, ...}, layer=\'/opt/web2py/applications/marcado/views/clientes/index.html\')'
p134
sS'func'
p135
S'restricted'
p136
sa(dp137
g110
S'/opt/web2py/gluon/restricted.py'
p138
sg112
(dp139
S'builtincompile'
p140
S'<built-in function compile>'
p141
sS'code'
p142
S'\'response.write(\\\'<!DOCTYPE html>\\\\r\\\\n<html lang="\\\'...v>   \\\\r\\\\n  </body>\\\\r\\\\n</html>\\\\r\\\\n\\\', escape=False)\''
p143
sS'code.rstrip'
p144
S'<built-in method rstrip of str object>'
p145
sS').replace'
p146
g121
sS'layer'
p147
S"'/opt/web2py/applications/marcado/views/clientes/index.html'"
p148
ssg122
I173
sg123
(dp149
I168
S''
sI169
S'def compile2(code,layer):'
p150
sI170
S'    """'
p151
sI171
S"    The +'\\n' is necessary else compile fails when code ends in a comment."
p152
sI172
S'    """'
p153
sI173
S"    return compile(code.rstrip().replace('\\r\\n','\\n')+'\\n', layer, 'exec')"
p154
sI174
S''
sI175
S"def restricted(code, environment={}, layer='Unknown'):"
p155
sI176
S'    """'
p156
sI177
S'    runs code in environment and returns the output. if an exception occurs'
p157
ssg133
S'(code=\'response.write(\\\'<!DOCTYPE html>\\\\r\\\\n<html lang="\\\'...v>   \\\\r\\\\n  </body>\\\\r\\\\n</html>\\\\r\\\\n\\\', escape=False)\', layer=\'/opt/web2py/applications/marcado/views/clientes/index.html\')'
p158
sg135
S'compile2'
p159
sasS'pyver'
p160
S'Python 2.6.6: /usr/bin/python'
p161
sS'session'
p162
(dp163
S'flash'
p164
S'None'
p165
sS'_formkey[login]'
p166
S"'ca579910-3223-4b3e-b699-f0736fb67aa5'"
p167
sS'auth'
p168
S"<Storage {'expiration': 3600, 'user': <Storage {..., 1, 12, 21, 55, 18, 333918), 'remember': False}>"
p169
ssS'etype'
p170
S"<type 'exceptions.SyntaxError'>"
p171
sS'date'
p172
S'Wed Jan 12 21:55:18 2011'
p173
sS'response'
p174
(dp175
S'status'
p176
S'200'
p177
sg70
S'<cStringIO.StringO object>'
p178
sg87
S"<SimpleCookie: session_id_marcado='127.0.0.1-8cf1bc21-50e6-47c7-8e02-aa5de3aab032'>"
p179
sS'_vars'
p180
S"{'clientes': <gluon.dal.Rows object>, 'table': <gluon.html.__tag__ object>}"
p181
sS'title'
p182
S"'Marcado!'"
p183
sS'session_file'
p184
S"<open file '/opt/web2py/applications/marcado/ses...cf1bc21-50e6-47c7-8e02-aa5de3aab032', mode 'rb+'>"
p185
sS'flash'
p186
S"''"
p187
sS'_custom_rollback'
p188
S'None'
p189
sS'session_id'
p190
S"'127.0.0.1-8cf1bc21-50e6-47c7-8e02-aa5de3aab032'"
p191
sS'headers'
p192
S"<Storage {'Expires': 'Wed, 12 Jan 2011 23:55:18 ...he, must-revalidate, post-check=0, pre-check=0'}>"
p193
sS'meta'
p194
S"<Storage {'keywords': 'web2py, python, framework...Enterprise Framework', 'author': 'Gilson Filho'}>"
p195
sS'session_filename'
p196
S"'/opt/web2py/applications/marcado/sessions/127.0.0.1-8cf1bc21-50e6-47c7-8e02-aa5de3aab032'"
p197
sS'postprocessing'
p198
S'[]'
p199
sS'menu'
p200
S"[(<lazyT 'Home'>, False, <gluon.html.XML object>, []), (<lazyT 'This App'>, False, <gluon.html.XML object>, [(<lazyT 'Controller'>, False, <gluon.html.XML object>), (<lazyT 'View'>, False, <gluon.html.XML object>), (<lazyT 'Layout'>, False, <gluon.html.XML object>), (<lazyT 'Stylesheet'>, False, <gluon.html.XML object>), (<lazyT 'DB Model'>, False, <gluon.html.XML object>), (<lazyT 'Menu Model'>, False, <gluon.html.XML object>), (<lazyT 'Database'>, False, <gluon.html.XML object>), (<lazyT 'Errors'>, False, <gluon.html.XML object>), (<lazyT 'About'>, False, <gluon.html.XML object>)]), (<lazyT 'Resources'>, False, None, [(<lazyT 'Documentation'>, False, 'http://www.web2py.com/book', [(<lazyT 'Preface'>, False, 'http://www.web2py.com/book/default/chapter/00'), (<lazyT 'Introduction'>, False, 'http://www.web2py.com/book/default/chapter/01'), (<lazyT 'Python'>, False, 'http://www.web2py.com/book/default/chapter/02'), (<lazyT 'Overview'>, False, 'http://www.web2py.com/book/default/chapter/03'), (<lazyT 'The Core'>, False, 'http://www.web2py.com/book/default/chapter/04'), (<lazyT 'The Views'>, False, 'http://www.web2py.com/book/default/chapter/05'), (<lazyT 'Database'>, False, 'http://www.web2py.com/book/default/chapter/06'), (<lazyT 'Forms and Validators'>, False, 'http://www.web2py.com/book/default/chapter/07'), (<lazyT 'Access Control'>, False, 'http://www.web2py.com/book/default/chapter/08'), (<lazyT 'Services'>, False, 'http://www.web2py.com/book/default/chapter/09'), (<lazyT 'Ajax Recipes'>, False, 'http://www.web2py.com/book/default/chapter/10'), (<lazyT 'Deployment Recipes'>, False, 'http://www.web2py.com/book/default/chapter/11'), (<lazyT 'Other Recipes'>, False, 'http://www.web2py.com/book/default/chapter/12'), (<lazyT 'Buy this book'>, False, 'http://stores.lulu.com/web2py')]), (<lazyT 'Community'>, False, None, [(<lazyT 'Groups'>, False, 'http://www.web2py.com/examples/default/usergroups'), (<lazyT 'Twitter'>, False, 'http://twitter.com/web2py'), (<lazyT 'Live chat'>, False, 'http://mibbit.com/?channel=%23web2py&server=irc.mibbit.net'), (<lazyT 'User Voice'>, False, 'http://web2py.uservoice.com/')]), (<lazyT 'Web2py'>, False, 'http://www.web2py.com', [(<lazyT 'Download'>, False, 'http://www.web2py.com/examples/default/download'), (<lazyT 'Support'>, False, 'http://www.web2py.com/examples/default/support'), (<lazyT 'Quick Examples'>, False, 'http://web2py.com/examples/default/examples'), (<lazyT 'FAQ'>, False, 'http://web2py.com/AlterEgo'), (<lazyT 'Free Applications'>, False, 'http://web2py.com/appliances'), (<lazyT 'Plugins'>, False, 'http://web2py.com/plugins'), (<lazyT 'Recipes'>, False, 'http://web2pyslices.com/'), (<lazyT 'Demo'>, False, 'http://web2py.com/demo_admin'), (<lazyT 'Semantic'>, False, 'http://web2py.com/semantic'), (<lazyT 'Layouts'>, False, 'http://web2py.com/layouts'), (<lazyT 'Videos'>, False, 'http://www.web2py.com/examples/default/videos/')])])]"
p201
sS'_view_environment'
p202
S"{'A': <class 'gluon.html.A'>, 'Auth': <class 'gluon.tools.Auth'>, 'B': <class 'gluon.html.B'>, 'BEAUTIFY': <class 'gluon.html.BEAUTIFY'>, 'BODY': <class 'gluon.html.BODY'>, 'BR': <class 'gluon.html.BR'>, 'CENTER': <class 'gluon.html.CENTER'>, 'CLEANUP': <class 'gluon.validators.CLEANUP'>, 'CODE': <class 'gluon.html.CODE'>, 'CRYPT': <class 'gluon.validators.CRYPT'>, ...}"
p203
sS'session_id_name'
p204
S"'session_id_marcado'"
p205
sS'_custom_commit'
p206
S'None'
p207
sS'_caller'
p208
S'<function <lambda>>'
p209
sS'files'
p210
S'[<gluon.html.XML object>, <gluon.html.XML object>, <gluon.html.XML object>, <gluon.html.XML object>, <gluon.html.XML object>]'
p211
sS'view'
p212
S"'clientes/index.html'"
p213
ssS'locals'
p214
(dp215
g3
S"'/opt/web2py/applications/marcado/views/clientes/index.html'"
p216
sg5
S'\'response.write(\\\'<!DOCTYPE html>\\\\r\\\\n<html lang="\\\'...v>   \\\\r\\\\n  </body>\\\\r\\\\n</html>\\\\r\\\\n\\\', escape=False)\''
p217
sssS'traceback'
p218
S'Traceback (most recent call last):\n  File "/opt/web2py/gluon/restricted.py", line 186, in restricted\n    ccode = compile2(code,layer)\n  File "/opt/web2py/gluon/restricted.py", line 173, in compile2\n    return compile(code.rstrip().replace(\'\\r\\n\',\'\\n\')+\'\\n\', layer, \'exec\')\n  File "/opt/web2py/applications/marcado/views/clientes/index.html", line 95\n    response.write(\'\\r\\n<br />\\r\\n<div class="navegacao">\\r\\n    <center><a href="\', escape=False)\n           ^\nSyntaxError: invalid syntax\n'
p219
s.